(dp1
(S'possible'
p2
S'on'
p3
tp4
I1
s(S'first'
p5
S'drafts'
p6
tp7
I1
s(S'votes'
p8
S'would'
p9
tp10
I1
s(S'phone'
p11
S'calls'
p12
tp13
I1
s(S'folks'
p14
S'in'
p15
tp16
I1
s(S'which'
p17
S'newly'
p18
tp19
I1
s(S'a'
S'constitutional'
p20
tp21
I1
s(S'sponsored'
p22
S'by'
p23
tp24
I1
s(S'lacking'
p25
S'in'
p26
tp27
I1
s(S'made'
p28
S'by'
p29
tp30
I1
s(S'the'
p31
S'adamant'
p32
tp33
I1
s(S'on'
p34
S'a'
tp35
I2
s(S'favorable'
p36
S'report'
p37
tp38
I1
s(S'prison'
p39
S'farms'
p40
tp41
I1
s(S'the'
p42
S'rising'
p43
tp44
I1
s(S'event'
p45
S'congress'
p46
tp47
I1
s(S'rule'
p48
S'requiring'
p49
tp50
I1
s(S'and'
p51
S'an'
p52
tp53
I1
s(S'nursing'
p54
S'home'
p55
tp56
I4
s(S'election'
p57
S'was'
p58
tp59
I2
s(S'pay'
p60
S'per'
p61
tp62
I1
s(S'obtain'
p63
S'a'
tp64
I1
s(S'hartsfield'
p65
S'filed'
p66
tp67
I1
s(S"didn't"
p68
S'have'
p69
tp70
I1
s(S'would'
p71
S'aid'
p72
tp73
I1
s(S'karns'
p74
S'two'
p75
tp76
I1
s(S'the'
p77
S'university'
p78
tp79
I2
s(S'equitable'
p80
S'pension'
p81
tp82
I1
s(S'authority'
p83
S'of'
p84
tp85
I2
s(S'this'
p86
S'will'
p87
tp88
I1
s(S'of'
p89
S'office'
p90
tp91
I1
s(S'navigation'
p92
S'district'
p93
tp94
I1
s(S'higher'
p95
S'in'
p96
tp97
I1
s(S'almost'
p98
S'impossible'
p99
tp100
I1
s(S'probably'
p101
S'unconstitutional'
p102
tp103
I1
s(S'finance'
p104
S'medical'
p105
tp106
I1
s(S'sam'
p107
S'caldwell'
p108
tp109
I1
s(S'of'
p110
S'cabinet'
p111
tp112
I1
s(S'by'
p113
S'aikin'
p114
tp115
I1
s(S'in'
p116
S'its'
p117
tp118
I1
s(S'gift'
p119
S'out'
p120
tp121
I1
s(S'disclosure'
p122
S'by'
p123
tp124
I1
s(S'and'
p125
S'that'
p126
tp127
I2
s(S'the'
p128
S'petition'
p129
tp130
I3
s(S'their'
p131
S'guilt'
p132
tp133
I1
s(S'an'
p134
S'orderly'
p135
tp136
I2
s(S'texas'
p137
S'statements'
p138
tp139
I1
s(S'of'
p140
S'63'
p141
tp142
I1
s(S'effort'
p143
S'by'
p144
tp145
I2
s(S'previous'
p146
S'legislatures'
p147
tp148
I1
s(S'would'
p149
S'like'
p150
tp151
I1
s(S'con'
p152
S'on'
p153
tp154
I1
s(S'31'
p155
S'he'
p156
tp157
I1
s(S'cases'
p158
S'in'
p159
tp160
I2
s(S'head'
p161
S'for'
p162
tp163
I1
s(S'whether'
p164
S'notice'
p165
tp166
I1
s(S'old'
p167
S'ones'
p168
tp169
I1
s(S'then'
p170
S'the'
p171
tp172
I1
s(S'robert'
p173
S'snodgrass'
p174
tp175
I1
s(S'city'
p176
S'welfare'
p177
tp178
I1
s(S'the'
p179
S'ballot'
p180
tp181
I1
s(S'jury'
p182
S'it'
p183
tp184
I1
s(S'thanks'
p185
S'of'
p186
tp187
I1
s(S'by'
p188
S'boosting'
p189
tp190
I1
s(S'the'
p191
S'appointment'
p192
tp193
I1
s(S'senate'
p194
S'where'
p195
tp196
I1
s(S'that'
p197
S'coercion'
p198
tp199
I1
s(S'highway'
p200
S'bond'
p201
tp202
I2
s(S'the'
p203
S'crowd'
p204
tp205
I1
s(S'students'
p206
S'the'
p207
tp208
I1
s(S'plan'
p209
S'alone'
p210
tp211
I1
s(S'special'
p212
S'message'
p213
tp214
I1
s(S'listed'
p215
S'the'
p216
tp217
I1
s(S'of'
p218
S'commerce'
p219
tp220
I1
s(S'1500'
p221
S'a'
tp222
I1
s(S'it'
p223
S'found'
p224
tp225
I1
s(S'by'
p226
S'1966'
p227
tp228
I1
s(S'bonds'
p229
S'meanwhile'
p230
tp231
I1
s(S'voters'
p232
S'last'
p233
tp234
I1
s(S'schools'
p235
S'said'
p236
tp237
I1
s(S'it'
p238
S'permits'
p239
tp240
I1
s(S'now'
p241
S'handle'
p242
tp243
I1
s(S'in'
p244
S'10'
p245
tp246
I1
s(S'jury'
p247
S'said'
p248
tp249
I8
s(S'the'
p250
S'couple'
p251
tp252
I2
s(S'need'
p253
S'living'
p254
tp255
I1
s(S"master's"
p256
S'degree'
p257
tp258
I1
s(S'this'
p259
S'county'
p260
tp261
I1
s(g156
S'told'
p262
tp263
I1
s(S'actually'
p264
S'the'
p265
tp266
I1
s(S'acquire'
p267
S'sites'
p268
tp269
I1
s(g117
S'platform'
p270
tp271
I1
s(S'kennedy'
p272
g209
tp273
I1
s(S'was'
p274
S'also'
p275
tp276
I1
s(S'his'
p277
S"wife's"
p278
tp279
I1
s(S'anonymous'
p280
S'midnight'
p281
tp282
I1
s(S'drafts'
p283
S'salinger'
p284
tp285
I1
s(S'creation'
p286
S'of'
p287
tp288
I1
s(S'or'
p289
S'those'
p290
tp291
I1
s(S'a'
S'means'
p292
tp293
I1
s(S'to'
p294
S'protect'
p295
tp296
I1
s(S'of'
p297
S'day'
p298
tp299
I1
s(S'denied'
p300
S'immediate'
p301
tp302
I1
s(S'another'
p303
S'enlarged'
p304
tp305
I1
s(S'decisions'
p306
S'on'
p307
tp308
I1
s(S'work'
p309
S'toward'
p310
tp311
I1
s(S'for'
p312
S'byrd'
p313
tp314
I1
s(S'bankers'
p315
S'association'
p316
tp317
I1
s(S'foster'
p318
S'homes'
p319
tp320
I1
s(S'republican'
p321
S'leader'
p322
tp323
I2
s(S'pointed'
p324
S'out'
p325
tp326
I1
s(S'to'
p327
S'live'
p328
tp329
I1
s(S'see'
p330
S'it'
p331
tp332
I1
s(S'of'
p333
S"georgia's"
p334
tp335
I4
s(S'into'
p336
S'medicine'
p337
tp338
I1
s(S'settlement'
p339
S'has'
p340
tp341
I1
s(S'county'
p342
S'saving'
p343
tp344
I1
s(S'home'
p345
S'finance'
p346
tp347
I1
s(S'that'
p348
S'reconsideration'
p349
tp350
I1
s(S'west'
p351
S'texan'
p352
tp353
I1
s(S'and'
p354
S'radio'
p355
tp356
I1
s(S'million'
p357
S'worth'
p358
tp359
I3
s(S'and'
p360
S'often'
p361
tp362
I1
s(S'delegation'
p363
S'in'
p364
tp365
I1
s(S'and'
p366
S'47'
p367
tp368
I1
s(S'rural'
p369
g137
tp370
I1
s(S'reports'
p371
S'of'
p372
tp373
I1
s(S'pay'
p374
S'doctors'
p375
tp376
I1
s(S'made'
p377
S'statements'
p378
tp379
I3
s(S'and'
p380
S'in'
p381
tp382
I1
s(S'retire'
p383
S'at'
p384
tp385
I1
s(S'republic'
p386
g238
tp387
I1
s(S'henry'
p388
S'grover'
p389
tp390
I1
s(S'on'
p391
S'that'
p392
tp393
I1
s(S'twothirds'
p394
S'majorities'
p395
tp396
I1
s(S'roads'
p397
S'bonds'
p398
tp399
I2
s(g213
S'to'
p400
tp401
I1
s(S'on'
p402
S'70'
p403
tp404
I1
s(S'ready'
p405
S'to'
p406
tp407
I1
s(S'billion'
p408
S'or'
p409
tp410
I1
s(S'a'
S'tyler'
p411
tp412
I1
s(S'sway'
p413
S"cotten's"
p414
tp415
I1
s(S'trouble'
p416
S'austin'
p417
tp418
I1
s(S'increase'
p419
S'in'
p420
tp421
I3
s(S'sitting'
p422
S'in'
p423
tp424
I1
s(S'sponsor'
p425
S'of'
p426
tp427
I2
s(S'forced'
p428
S'these'
p429
tp430
I1
s(S'recent'
p431
S'primary'
p432
tp433
I1
s(S'senate'
p434
S'by'
p435
tp436
I1
s(S"school's"
p437
S'new'
p438
tp439
I1
s(S'it'
p440
S'did'
p441
tp442
I1
s(S'care'
p443
S'program'
p444
tp445
I1
s(S'31st'
p446
S'ward'
p447
tp448
I1
s(S'for'
p449
S'some'
p450
tp451
I1
s(S'deaf'
p452
S'in'
p453
tp454
I2
s(S'team'
p455
S'and'
p456
tp457
I1
s(S'an'
p458
S'amicable'
p459
tp460
I1
s(S'house'
p461
S'hopper'
p462
tp463
I1
s(S'them'
p464
S'the'
p465
tp466
I2
s(S'system'
p467
S'which'
p468
tp469
I1
s(g58
S'conducted'
p470
tp471
I1
s(S'a'
S'case'
p472
tp473
I1
s(S'5000000'
p474
S'to'
p475
tp476
I1
s(S'the'
p477
S'legislature'
p478
tp479
I3
s(S'the'
p480
g45
tp481
I1
s(S'what'
p482
S'adjustments'
p483
tp484
I1
s(S'firms'
p485
S'pipeline'
p486
tp487
I1
s(S'of'
p488
S"atlanta's"
p489
tp490
I1
s(S'but'
p491
S'made'
p492
tp493
I1
s(S'arrest'
p494
S'judge'
p495
tp496
I1
s(S'up'
p497
S'its'
p498
tp499
I1
s(S'meeting'
p500
S'the'
p501
tp502
I1
s(S'hospitals'
p503
S'this'
p504
tp505
I1
s(S'admitted'
p506
S'in'
p507
tp508
I1
s(S'his'
p509
S'post'
p510
tp511
I1
s(S'dental'
p512
S'schools'
p513
tp514
I4
s(S'the'
p515
S'audience'
p516
tp517
I2
s(S'down'
p518
S'considerably'
p519
tp520
I1
s(S'march'
p521
S'18'
p522
tp523
I1
s(S'elections'
p524
S'under'
p525
tp526
I1
s(S'which'
p527
S'it'
p528
tp529
I1
s(S'local'
p530
S'water'
p531
tp532
I1
s(S'school'
p533
S'principal'
p534
tp535
I1
s(S'ambiguous'
p536
S'it'
p537
tp538
I1
s(S'involved'
p539
S'persons'
p540
tp541
I1
s(S'or'
p542
S'more'
p543
tp544
I3
s(S'yesterday'
p545
S'the'
p546
tp547
I1
s(S'require'
p548
S'juniorsenior'
p549
tp550
I1
s(S'begin'
p551
S'and'
p552
tp553
I1
s(S'such'
p554
S'taxes'
p555
tp556
I1
s(S'ward'
p557
S'and'
p558
tp559
I1
s(S'a'
S'legislator'
p560
tp561
I1
s(S'a'
S'year'
p562
tp563
I9
s(S'given'
p564
g348
tp565
I1
s(S'much'
p566
S'as'
p567
tp568
I1
s(S'offer'
p569
S'a'
tp570
I1
s(S'scott'
p571
S'committee'
p572
tp573
I1
s(S'for'
p574
S'its'
p575
tp576
I2
s(S'him'
p577
S'to'
p578
tp579
I1
s(g478
S'against'
p580
tp581
I1
s(S'present'
p582
S'term'
p583
tp584
I1
s(S'fair'
p585
S'and'
p586
tp587
I1
s(S'be'
p588
S'highly'
p589
tp590
I1
s(S'providing'
p591
S'water'
p592
tp593
I1
s(S'and'
p594
S'would'
p595
tp596
I1
s(S'representatives'
p597
S'was'
p598
tp599
I1
s(g555
S'the'
p600
tp601
I1
s(S'the'
p602
S'annual'
p603
tp604
I1
s(S'designed'
p605
S'to'
p606
tp607
I3
s(S'year'
p608
S'for'
p609
tp610
I2
s(S'amendment'
p611
S'previously'
p612
tp613
I1
s(S'is'
p614
S'permitted'
p615
tp616
I1
s(S'both'
p617
S'figures'
p618
tp619
I1
s(S'money'
p620
S'it'
p621
tp622
I1
s(S'greater'
p623
S'significance'
p624
tp625
I1
s(S'rhode'
p626
S'island'
p627
tp628
I1
s(S'executive'
p629
S'returned'
p630
tp631
I1
s(S'8731'
p632
S'a'
tp633
I1
s(S'have'
p634
S'to'
p635
tp636
I3
s(S'three'
p637
S'years'
p638
tp639
I1
s(S'chairman'
p640
S'said'
p641
tp642
I1
s(S'by'
p643
g74
tp644
I1
s(S'dependent'
p645
S'children'
p646
tp647
I1
s(S'in'
p648
S'questioning'
p649
tp650
I1
s(S'taken'
p651
S'under'
p652
tp653
I1
s(S'on'
p654
S'his'
p655
tp656
I1
s(S'would'
p657
S'reduce'
p658
tp659
I1
s(S'undue'
p660
S'costs'
p661
tp662
I1
s(S"department's"
p663
S'handling'
p664
tp665
I1
s(S'soon'
p666
S'after'
p667
tp668
I1
s(S'off'
p669
S'by'
p670
tp671
I1
s(S'to'
p672
S'75'
p673
tp674
I1
s(S'as'
p675
g2
tp676
I1
s(S'suggested'
p677
S'a'
tp678
I1
s(S'grants'
p679
S'officials'
p680
tp681
I1
s(S'atlanta'
p682
S'and'
p683
tp684
I1
s(g290
S'of'
p685
tp686
I2
s(S'together'
p687
S'as'
p688
tp689
I1
s(S'in'
p690
S'savannah'
p691
tp692
I1
s(S'use'
p693
S'none'
p694
tp695
I1
s(S'and'
p696
S'chief'
p697
tp698
I1
s(S'through'
p699
S'its'
p700
tp701
I1
s(S'erase'
p702
S'an'
p703
tp704
I1
s(S'evidence'
p705
S'by'
p706
tp707
I1
s(S'rank'
p708
S'have'
p709
tp710
I1
s(S'mayer'
p711
S'goldberg'
p712
tp713
I1
s(S'gulf'
p714
S'coast'
p715
tp716
I1
s(S'must'
p717
S'be'
p718
tp719
I1
s(S'be'
p720
S'combined'
p721
tp722
I1
s(S'education'
p723
S'provided'
p724
tp725
I1
s(S'of'
p726
S'george'
p727
tp728
I1
s(S'3'
S'per'
p729
tp730
I1
s(S'enforced'
p731
S'by'
p732
tp733
I1
s(S'and'
p734
S'bush'
p735
tp736
I2
s(S'county'
p737
S'grand'
p738
tp739
I1
s(S'roads'
p740
S'authority'
p741
tp742
I2
s(S'education'
p743
S'courses'
p744
tp745
I2
s(S'by'
p746
S'parkhouse'
p747
tp748
I1
s(S'to'
p749
S'schools'
p750
tp751
I1
s(S'to'
p752
S'cities'
p753
tp754
I1
s(S'he'
p755
S'scheduled'
p756
tp757
I1
s(S'means'
p758
S'of'
p759
tp760
I2
s(S'expected'
p761
S'congressional'
p762
tp763
I1
s(S'would'
p764
S'amount'
p765
tp766
I2
s(S'afternoon'
p767
S'the'
p768
tp769
I1
s(S'no'
p770
S'evidence'
p771
tp772
I1
s(S'cities'
p773
S'thursday'
p774
tp775
I1
s(S'bexar'
p776
S'tarrant'
p777
tp778
I1
s(S'the'
p779
S'act'
p780
tp781
I1
s(g66
S'suit'
p782
tp783
I1
s(S'to'
p784
S'first'
p785
tp786
I1
s(S'newton'
p787
S'and'
p788
tp789
I1
s(S'his'
p790
S'13th'
p791
tp792
I1
s(S'with'
p793
S'two'
p794
tp795
I1
s(S'earlier'
p796
S'court'
p797
tp798
I1
s(S'relatives'
p799
S'including'
p800
tp801
I1
s(g572
S'chairman'
p802
tp803
I1
s(S'site'
p804
S'two'
p805
tp806
I1
s(S'planning'
p807
S'assistance'
p808
tp809
I1
s(S'who'
p810
S'is'
p811
tp812
I2
s(S'to'
p813
S'5000'
p814
tp815
I1
s(S'hughes'
p816
S'of'
p817
tp818
I1
s(S'in'
p819
g790
tp820
I1
s(S'eliminating'
p821
S'the'
p822
tp823
I2
s(S'takes'
p824
S'charge'
p825
tp826
I1
s(S'who'
p827
S'attended'
p828
tp829
I1
s(S'innocence'
p830
S'of'
p831
tp832
I1
s(S'sheriff'
p833
S'said'
p834
tp835
I1
s(S'a'
S'bill'
p836
tp837
I4
s(S'the'
p838
S'texas'
p839
tp840
I6
s(S'charles'
p841
S'clark'
p842
tp843
I1
s(g516
S'state'
p844
tp845
I1
s(S'earned'
p846
S'doctor'
p847
tp848
I1
s(S'afford'
p849
S'the'
p850
tp851
I1
s(S'law'
p852
S'which'
p853
tp854
I2
s(S'will'
p855
S'deliver'
p856
tp857
I1
s(S'states'
p858
S'to'
p859
tp860
I2
s(S'heard'
p861
S'previously'
p862
tp863
I1
s(S'in'
p864
S'order'
p865
tp866
I1
s(S'received'
p867
S'anonymous'
p868
tp869
I1
s(S'cases'
p870
S'also'
p871
tp872
I1
s(S'funds'
p873
S'through'
p874
tp875
I1
s(S'seemed'
p876
S'certain'
p877
tp878
I1
s(S'been'
p879
S'unable'
p880
tp881
I1
s(S'of'
p882
S'these'
p883
tp884
I2
s(g227
S'the'
p885
tp886
I1
s(S'133'
p887
S'precincts'
p888
tp889
I1
s(S'jury'
p890
S'further'
p891
tp892
I1
s(S'after'
p893
S'reading'
p894
tp895
I1
s(S'his'
p896
S'basketball'
p897
tp898
I1
s(S'republicans'
p899
S'are'
p900
tp901
I1
s(S'was'
p902
S'heard'
p903
tp904
I1
s(S'made'
p905
S'the'
p906
tp907
I2
s(S'their'
p908
S'contractual'
p909
tp910
I1
s(S'are'
p911
S'still'
p912
tp913
I1
s(S'involved'
p914
S'judges'
p915
tp916
I1
s(S'when'
p917
S'the'
p918
tp919
I5
s(S'problem'
p920
S'the'
p921
tp922
I1
s(S'it'
p923
S'wanted'
p924
tp925
I1
s(S'process'
p926
S'may'
p927
tp928
I1
s(S'onefourth'
p929
S'of'
p930
tp931
I1
s(S'to'
p932
S'banks'
p933
tp934
I1
s(S'wards'
p935
S'from'
p936
tp937
I1
s(S'a'
S'quarrel'
p938
tp939
I1
s(S'doubt'
p940
S'that'
p941
tp942
I1
s(S'liquor'
p943
S'and'
p944
tp945
I1
s(S'for'
p946
S'vocational'
p947
tp948
I1
s(S'son'
p949
S'william'
p950
tp951
I1
s(S'warning'
p952
S'there'
p953
tp954
I1
s(S'completion'
p955
S'decisions'
p956
tp957
I1
s(S'vote'
p958
S'of'
p959
tp960
I2
s(S'voted'
p961
S'through'
p962
tp963
I1
s(S'sponsored'
p964
S'last'
p965
tp966
I1
s(S'passed'
p967
S'one'
p968
tp969
I1
s(S'health'
p970
S'services'
p971
tp972
I1
s(S'a'
S'new'
p973
tp974
I2
s(S'of'
p975
S'paris'
p976
tp977
I2
s(S"bill's"
p978
S'defenders'
p979
tp980
I1
s(S'presidential'
p981
S'appointments'
p982
tp983
I1
s(S'generally'
p984
S'argued'
p985
tp986
I1
s(S'legislature'
p987
S'proposed'
p988
tp989
I1
s(S'has'
p990
S'consistently'
p991
tp992
I1
s(g780
S'and'
p993
tp994
I1
s(S'i'
S'ever'
p995
tp996
I2
s(S'deaf'
p997
S'children'
p998
tp999
I1
s(S"berry's"
p1000
S'proposed'
p1001
tp1002
I1
s(S'whereby'
p1003
S'social'
p1004
tp1005
I1
s(g61
S'year'
p1006
tp1007
I1
s(S'new'
p1008
S'medical'
p1009
tp1010
I3
s(S'scheduled'
p1011
S'this'
p1012
tp1013
I1
s(g877
S'thursday'
p1014
tp1015
I1
s(S'considering'
p1016
S'the'
p1017
tp1018
I1
s(g307
S'administration'
p1019
tp1020
I1
s(S'the'
p1021
S'precinct'
p1022
tp1023
I1
s(S'one'
p1024
S'week'
p1025
tp1026
I1
s(S'of'
p1027
S'appraisers'
p1028
tp1029
I1
s(S'policeman'
p1030
S'tom'
p1031
tp1032
I1
s(S'grady'
p1033
S'hospital'
p1034
tp1035
I1
s(S'judge'
p1036
S'parsons'
p1037
tp1038
I2
s(S'time'
p1039
S'spent'
p1040
tp1041
I1
s(S'wexler'
p1042
S'special'
p1043
tp1044
I1
s(S'produced'
p1045
g770
tp1046
I1
s(S'certificate'
p1047
S'of'
p1048
tp1049
I1
s(S'are'
p1050
S'under'
p1051
tp1052
I1
s(S'council'
p1053
S'in'
p1054
tp1055
I1
s(S''
S'the'
p1056
tp1057
I1
s(S'means'
p1058
S'karns'
p1059
tp1060
I1
s(S'calls'
p1061
S'for'
p1062
tp1063
I1
s(S'the'
p1064
S'mayor'
p1065
tp1066
I1
s(S"wasn't"
p1067
S'a'
tp1068
I1
s(S'alleged'
p1069
S'water'
p1070
tp1071
I1
s(S'source'
p1072
S'told'
p1073
tp1074
I1
s(S'a'
S'freeforall'
p1075
tp1076
I1
s(S'today'
p1077
S'pushed'
p1078
tp1079
I1
s(S'city'
p1080
S'personnel'
p1081
tp1082
I1
s(g254
S'with'
p1083
tp1084
I1
s(S'the'
p1085
S'hartsfield'
p1086
tp1087
I1
s(S'the'
p1088
S'maximum'
p1089
tp1090
I1
s(S'to'
p1091
S'depend'
p1092
tp1093
I1
s(S'skills'
p1094
S'and'
p1095
tp1096
I1
s(S'cases'
p1097
S'he'
p1098
tp1099
I1
s(S'city'
p1100
S'judge'
p1101
tp1102
I1
s(S'voted'
p1103
S'no'
p1104
tp1105
I1
s(S'capacity'
p1106
S'of'
p1107
tp1108
I1
s(S'needs'
p1109
S'of'
p1110
tp1111
I2
s(S'clark'
p1112
S'holds'
p1113
tp1114
I1
s(S'health'
p1115
S'care'
p1116
tp1117
I2
s(S'for'
p1118
S'more'
p1119
tp1120
I2
s(S'will'
p1121
g551
tp1122
I1
s(S'addition'
p1123
S'the'
p1124
tp1125
I1
s(S'and'
p1126
S'general'
p1127
tp1128
I1
s(S'illegitimacy'
p1129
S'several'
p1130
tp1131
I1
s(S'fears'
p1132
S'prejudicial'
p1133
tp1134
I1
s(S'proposed'
p1135
S'however'
p1136
tp1137
I1
s(S'are'
p1138
S'required'
p1139
tp1140
I1
s(S'involved'
p1141
S'in'
p1142
tp1143
I1
s(S'65'
p1144
S'per'
p1145
tp1146
I1
s(S'proposal'
p1147
S'modest'
p1148
tp1149
I1
s(S'advisers'
p1150
S'and'
p1151
tp1152
I1
s(S'as'
p1153
S'they'
p1154
tp1155
I1
s(S'informed'
p1156
S'on'
p1157
tp1158
I1
s(S'election'
p1159
g734
tp1160
I1
s(S'unanimous'
p1161
S'vote'
p1162
tp1163
I1
s(S'in'
p1164
S'midmorning'
p1165
tp1166
I1
s(S'been'
p1167
S'consulted'
p1168
tp1169
I1
s(S'least'
p1170
S'a'
tp1171
I1
s(S'state'
p1172
S'representatives'
p1173
tp1174
I1
s(S'for'
p1175
S'experimental'
p1176
tp1177
I1
s(S'field'
p1178
S'the'
p1179
tp1180
I1
s(S'construed'
p1181
S'this'
p1182
tp1183
I1
s(S'precincts'
p1184
S'to'
p1185
tp1186
I1
s(S'court'
p1187
S'which'
p1188
tp1189
I1
s(S'as'
p1190
S'state'
p1191
tp1192
I1
s(S'hays'
p1193
S'as'
p1194
tp1195
I1
s(S'harry'
p1196
S'davis'
p1197
tp1198
I1
s(S'teacher'
p1199
S'pay'
p1200
tp1201
I1
s(S'science'
p1202
S'degree'
p1203
tp1204
I2
s(g718
S'taken'
p1205
tp1206
I2
s(S'there'
p1207
S'also'
p1208
tp1209
I1
s(S"department's"
p1210
S'authority'
p1211
tp1212
I1
s(S'proposed'
p1213
S'by'
p1214
tp1215
I1
s(S'reduced'
p1216
S'cost'
p1217
tp1218
I1
s(S'college'
p1219
S'requirement'
p1220
tp1221
I1
s(S'millions'
p1222
S'of'
p1223
tp1224
I1
s(S'courts'
p1225
S'building'
p1226
tp1227
I1
s(S'schooling'
p1228
S'for'
p1229
tp1230
I1
s(S'24'
p1231
S'president'
p1232
tp1233
I1
s(S'making'
p1234
S'a'
tp1235
I2
s(g950
S'berry'
p1236
tp1237
I1
s(g498
S'1961'
p1238
tp1239
I1
s(g562
g1085
tp1240
I2
s(S'there'
p1241
S'should'
p1242
tp1243
I1
s(S'the'
p1244
S'campaign'
p1245
tp1246
I1
s(S'hour'
p1247
S'delay'
p1248
tp1249
I1
s(S'58th'
p1250
S'precinct'
p1251
tp1252
I2
s(S'have'
p1253
S'these'
p1254
tp1255
I1
s(g638
S'when'
p1256
tp1257
I1
s(S'of'
p1258
S'miscellaneous'
p1259
tp1260
I1
s(S'senator'
p1261
S'wesley'
p1262
tp1263
I1
s(S'also'
p1264
S'commented'
p1265
tp1266
I1
s(S'the'
p1267
S'signatures'
p1268
tp1269
I1
s(S'purchasing'
p1270
S'department'
p1271
tp1272
I1
s(S'watered'
p1273
g518
tp1274
I1
s(S'passed'
p1275
S'but'
p1276
tp1277
I1
s(S'absolutely'
p1278
S'essential'
p1279
tp1280
I1
s(S'county'
p1281
S'should'
p1282
tp1283
I1
s(g697
S'justice'
p1284
tp1285
I1
s(S'socialized'
p1286
S'medicine'
p1287
tp1288
I1
s(S'grant'
p1289
S'to'
p1290
tp1291
I1
s(S'would'
p1292
S'impair'
p1293
tp1294
I1
s(S'address'
p1295
S'he'
p1296
tp1297
I1
s(S'oppose'
p1298
S'it'
p1299
tp1300
I1
s(S'of'
p1301
S'two'
p1302
tp1303
I2
s(S'patrolman'
p1304
S'and'
p1305
tp1306
I1
s(g1236
S'and'
p1307
tp1308
I2
s(S'cover'
p1309
S'up'
p1310
tp1311
I1
s(S'his'
p1312
S'time'
p1313
tp1314
I1
s(S'in'
p1315
S'which'
p1316
tp1317
I2
s(S'to'
p1318
S'do'
p1319
tp1320
I1
s(S'of'
p1321
S'austin'
p1322
tp1323
I1
s(S'the'
p1324
S'levy'
p1325
tp1326
I1
s(S'back'
p1327
S'to'
p1328
tp1329
I1
s(S'to'
p1330
S'anonymous'
p1331
tp1332
I1
s(S'also'
p1333
S'asked'
p1334
tp1335
I1
s(S'his'
p1336
S'local'
p1337
tp1338
I1
s(S'atlanta'
p1339
S'for'
p1340
tp1341
I1
s(S'committee'
p1342
S'are'
p1343
tp1344
I1
s(S'million'
p1345
S'to'
p1346
tp1347
I2
s(S'sessions'
p1348
S'a'
tp1349
I1
s(S'coolest'
p1350
S'calmest'
p1351
tp1352
I1
s(S'1'
S'he'
p1353
tp1354
I1
s(S'based'
p1355
S'on'
p1356
tp1357
I1
s(S'for'
p1358
S'building'
p1359
tp1360
I1
s(S'reaction'
p1361
S'to'
p1362
tp1363
I1
s(S'to'
p1364
S'more'
p1365
tp1366
I1
s(S'board'
p1367
S'of'
p1368
tp1369
I2
s(S'money'
p1370
S'to'
p1371
tp1372
I1
s(S'the'
p1373
S'540'
p1374
tp1375
I1
s(S'and'
p1376
S'sent'
p1377
tp1378
I1
s(S'a'
S'highway'
p1379
tp1380
I1
s(g450
S'time'
p1381
tp1382
I1
s(S'and'
p1383
S'athletic'
p1384
tp1385
I1
s(S'death'
p1386
g521
tp1387
I1
s(S'five'
p1388
S'years'
p1389
tp1390
I1
s(S'and'
p1391
S'with'
p1392
tp1393
I1
s(S'jones'
p1394
S'who'
p1395
tp1396
I1
s(S'pye'
p1397
S'to'
p1398
tp1399
I1
s(g959
S'295'
p1400
tp1401
I1
s(S'approved'
p1402
S'by'
p1403
tp1404
I1
s(S'produce'
p1405
S'17'
p1406
tp1407
I1
s(S'the'
p1408
S'cases'
p1409
tp1410
I2
s(S'carson'
p1411
S'pirie'
p1412
tp1413
I1
s(S'eight'
p1414
S'years'
p1415
tp1416
I1
s(S'it'
p1417
S'for'
p1418
tp1419
I1
s(S'to'
p1420
g1253
tp1421
I3
s(S'to'
p1422
S'37'
p1423
tp1424
I1
s(S'into'
p1425
S'its'
p1426
tp1427
I1
s(S'any'
p1428
S'irregularities'
p1429
tp1430
I1
s(g207
S'schools'
p1431
tp1432
I2
s(S"wouldn't"
p1433
g374
tp1434
I1
s(S'speaker'
p1435
S'sam'
p1436
tp1437
I1
s(S"governor's"
p1438
S'race'
p1439
tp1440
I1
s(S'pierre'
p1441
S'salinger'
p1442
tp1443
I1
s(S'denton'
p1444
S'texas'
p1445
tp1446
I1
s(S'reported'
p1447
S'when'
p1448
tp1449
I1
s(S'adc'
p1450
S'case'
p1451
tp1452
I1
s(S'dismissed'
p1453
S'yesterday'
p1454
tp1455
I1
s(g862
S'and'
p1456
tp1457
I1
s(g195
S'a'
tp1458
I1
s(S'next'
p1459
S'10'
p1460
tp1461
I1
s(S'sledding'
p1462
S'later'
p1463
tp1464
I1
s(S'repeatedly'
p1465
g197
tp1466
I1
s(S'the'
p1467
S'rule'
p1468
tp1469
I1
s(S'programs'
p1470
S'under'
p1471
tp1472
I1
s(S'that'
p1473
S'medical'
p1474
tp1475
I1
s(S'seek'
p1476
S'to'
p1477
tp1478
I1
s(S'cent'
p1479
S'of'
p1480
tp1481
I1
s(S'house'
p1482
S'in'
p1483
tp1484
I1
s(S'by'
p1485
S'the'
p1486
tp1487
I7
s(S'10'
p1488
S'a'
tp1489
I1
s(S'by'
p1490
S'how'
p1491
tp1492
I1
s(S'on'
p1493
S'cape'
p1494
tp1495
I1
s(S'year'
p1496
S'1963'
p1497
tp1498
I1
s(g797
S'hearings'
p1499
tp1500
I1
s(S'need'
p1501
S'for'
p1502
tp1503
I2
s(S'4'
S'ballot'
p1504
tp1505
I2
s(S'it'
p1506
S'believes'
p1507
tp1508
I1
s(S'teaching'
p1509
S'certificate'
p1510
tp1511
I1
s(S'the'
p1512
S'tea'
p1513
tp1514
I1
s(S'whom'
p1515
S'he'
p1516
tp1517
I1
s(S'the'
p1518
S'scholarship'
p1519
tp1520
I1
s(S'distribute'
p1521
S'these'
p1522
tp1523
I1
s(S'college'
p1524
S'weatherford'
p1525
tp1526
I1
s(S"byrd's"
p1527
S'campaign'
p1528
tp1529
I1
s(g618
S'would'
p1530
tp1531
I1
s(S'operated'
p1532
S'in'
p1533
tp1534
I1
s(S'many'
p1535
g1222
tp1536
I1
s(g337
S'and'
p1537
tp1538
I1
s(S'the'
p1539
S'race'
p1540
tp1541
I1
s(S'now'
p1542
S'serving'
p1543
tp1544
I1
s(S'the'
p1545
S'area'
p1546
tp1547
I1
s(S'now'
p1548
S'paying'
p1549
tp1550
I1
s(S'the'
p1551
S'action'
p1552
tp1553
I2
s(S'determine'
p1554
g482
tp1555
I1
s(S'were'
p1556
S'for'
p1557
tp1558
I1
s(S'the'
p1559
S'150'
p1560
tp1561
I1
s(S'issue'
p1562
S'will'
p1563
tp1564
I1
s(g510
S'in'
p1565
tp1566
I1
s(S'research'
p1567
S'in'
p1568
tp1569
I1
s(S'railroad'
p1570
S'retirement'
p1571
tp1572
I3
s(S'that'
p1573
S'enough'
p1574
tp1575
I1
s(S'the'
p1576
S'help'
p1577
tp1578
I1
s(S'put'
p1579
S'it'
p1580
tp1581
I1
s(S'for'
p1582
S'yesterday'
p1583
tp1584
I1
s(S'state'
p1585
S'treasurer'
p1586
tp1587
I1
s(S'function'
p1588
S'of'
p1589
tp1590
I1
s(S'authorities'
p1591
S'vandiver'
p1592
tp1593
I1
s(S'legislature'
p1594
S'provide'
p1595
tp1596
I1
s(S'president'
p1597
S'of'
p1598
tp1599
I1
s(S'specifically'
p1600
S'asked'
p1601
tp1602
I1
s(S'a'
S'resolution'
p1603
tp1604
I2
s(S'responses'
p1605
S'from'
p1606
tp1607
I1
s(S'the'
p1608
S'community'
p1609
tp1610
I1
s(S'the'
p1611
S'pockets'
p1612
tp1613
I1
s(S'red'
p1614
S'berry'
p1615
tp1616
I1
s(S'it'
p1617
S'added'
p1618
tp1619
I1
s(S'president'
p1620
S'recommended'
p1621
tp1622
I1
s(g507
g796
tp1623
I1
s(S'courses'
p1624
S'required'
p1625
tp1626
I1
s(S'many'
p1627
g333
tp1628
I1
s(S'parimutuels'
p1629
S'soon'
p1630
tp1631
I1
s(S'scattered'
p1632
S'ayes'
p1633
tp1634
I1
s(S'provide'
p1635
S'special'
p1636
tp1637
I1
s(S'schools'
p1638
S'permitting'
p1639
tp1640
I1
s(S'rejected'
p1641
S'a'
tp1642
I1
s(S'a'
S'daughter'
p1643
tp1644
I1
s(S'the'
p1645
S'past'
p1646
tp1647
I1
s(S'the'
p1648
S'housing'
p1649
tp1650
I1
s(S'such'
p1651
S'funds'
p1652
tp1653
I1
s(S'shortly'
p1654
S'after'
p1655
tp1656
I1
s(S'per'
p1657
S'student'
p1658
tp1659
I1
s(S'personally'
p1660
S'led'
p1661
tp1662
I1
s(S'be'
p1663
g1532
tp1664
I1
s(S'been'
p1665
g300
tp1666
I1
s(S'expand'
p1667
S'child'
p1668
tp1669
I1
s(S'did'
p1670
g413
tp1671
I1
s(S'than'
p1672
g152
tp1673
I1
s(S'technical'
p1674
S'details'
p1675
tp1676
I1
s(S'that'
p1677
S'dallas'
p1678
tp1679
I1
s(S'recommendations'
p1680
g28
tp1681
I1
s(S'guardians'
p1682
S'and'
p1683
tp1684
I1
s(S'lines'
p1685
S'legislators'
p1686
tp1687
I1
s(S'700'
p1688
S'million'
p1689
tp1690
I1
s(S'of'
p1691
S'nursing'
p1692
tp1693
I1
s(S'ended'
p1694
S'the'
p1695
tp1696
I1
s(S'party'
p1697
S'chairman'
p1698
tp1699
I1
s(S'race'
p1700
S'betting'
p1701
tp1702
I1
s(S'patient'
p1703
S'could'
p1704
tp1705
I1
s(S'william'
p1706
g65
tp1707
I1
s(S'or'
p1708
S'only'
p1709
tp1710
I1
s(S'to'
p1711
S'pay'
p1712
tp1713
I5
s(S'wrongful'
p1714
S'act'
p1715
tp1716
I1
s(S'halleck'
p1717
S'said'
p1718
tp1719
I2
s(S'of'
p1720
S'griffin'
p1721
tp1722
I1
s(S'when'
p1723
S'some'
p1724
tp1725
I1
s(S'establishment'
p1726
S'of'
p1727
tp1728
I3
s(S'than'
p1729
S'100000'
p1730
tp1731
I1
s(g177
S'consulting'
p1732
tp1733
I1
s(S'be'
p1734
S'periodic'
p1735
tp1736
I1
s(S'teach'
p1737
S'in'
p1738
tp1739
I1
s(S'term'
p1740
S'to'
p1741
tp1742
I1
s(S'plan'
p1743
S'there'
p1744
tp1745
I1
s(S'rayburn'
p1746
S'called'
p1747
tp1748
I1
s(S'has'
p1749
S'named'
p1750
tp1751
I1
s(S'of'
p1752
S'regents'
p1753
tp1754
I1
s(S'large'
p1755
S'federal'
p1756
tp1757
I1
s(S'of'
p1758
S'this'
p1759
tp1760
I3
s(S'absorbed'
p1761
S'parkhouse'
p1762
tp1763
I1
s(S'board'
p1764
S'during'
p1765
tp1766
I1
s(S'workers'
p1767
S'would'
p1768
tp1769
I1
s(S'like'
p1770
S'buchanan'
p1771
tp1772
I1
s(S'disclosure'
p1773
S'when'
p1774
tp1775
I1
s(S'the'
p1776
S'vote'
p1777
tp1778
I1
s(S'fulton'
p1779
S'health'
p1780
tp1781
I1
s(S'aside'
p1782
S'the'
p1783
tp1784
I1
s(S'court'
p1785
S'has'
p1786
tp1787
I1
s(S'poll'
p1788
S'idea'
p1789
tp1790
I1
s(S'implementation'
p1791
S'of'
p1792
tp1793
I2
s(S'had'
p1794
S'finally'
p1795
tp1796
I1
s(S'interest'
p1797
S'of'
p1798
tp1799
I1
s(S'or'
p1800
S'english'
p1801
tp1802
I1
s(S'federal'
p1803
S'matching'
p1804
tp1805
I1
s(S'and'
p1806
S'taxation'
p1807
tp1808
I1
s(S'district'
p1809
S'have'
p1810
tp1811
I1
s(S'henry'
p1812
S'bowden'
p1813
tp1814
I1
s(S'senate'
p1815
S'quickly'
p1816
tp1817
I1
s(S'apparently'
p1818
S'intends'
p1819
tp1820
I1
s(S'the'
p1821
S'issuance'
p1822
tp1823
I1
s(S'promised'
p1824
S'an'
p1825
tp1826
I1
s(S'dollars'
p1827
S'charles'
p1828
tp1829
I1
s(S'a'
S'white'
p1830
tp1831
I1
s(S'jury'
p1832
S'did'
p1833
tp1834
I1
s(S'trial'
p1835
S'first'
p1836
tp1837
I1
s(S'went'
p1838
S'real'
p1839
tp1840
I1
s(S'texas'
p1841
S'school'
p1842
tp1843
I1
s(S'as'
p1844
S'stocks'
p1845
tp1846
I1
s(S'is'
p1847
S'impossible'
p1848
tp1849
I1
s(g936
g660
tp1850
I1
s(S'20'
p1851
S'a'
tp1852
I1
s(S'must'
p1853
S'hold'
p1854
tp1855
I1
s(S'fees'
p1856
S'and'
p1857
tp1858
I1
s(S'to'
p1859
g1309
tp1860
I1
s(S'of'
p1861
S'adc'
p1862
tp1863
I2
s(S'for'
p1864
S'persons'
p1865
tp1866
I1
s(S'just'
p1867
S'like'
p1868
tp1869
I1
s(S'of'
p1870
S'dallas'
p1871
tp1872
I3
s(S'deaf'
p1873
S'school'
p1874
tp1875
I1
s(S'passing'
p1876
S'the'
p1877
tp1878
I1
s(S'county'
p1879
S'by'
p1880
tp1881
I1
s(S'continue'
p1882
S'to'
p1883
tp1884
I1
s(S'strickland'
p1885
S'state'
p1886
tp1887
I1
s(g1197
S'a'
tp1888
I1
s(S'medical'
p1889
S'intern'
p1890
tp1891
I1
s(S'taxpayers'
p1892
S'the'
p1893
tp1894
I1
s(g1056
S'fulton'
p1895
tp1896
I6
s(g37
S'although'
p1897
tp1898
I1
s(S'personally'
p1899
S'would'
p1900
tp1901
I1
s(S'bills'
p1902
S'of'
p1903
tp1904
I2
s(S'most'
p1905
S'by'
p1906
tp1907
I1
s(S'persons'
p1908
g1141
tp1909
I1
s(S'of'
p1910
S'sulphur'
p1911
tp1912
I1
s(S'last'
p1913
g1414
tp1914
I1
s(S'investigation'
p1915
g488
tp1916
I2
s(S'costs'
p1917
S'contributions'
p1918
tp1919
I1
s(S'the'
p1920
S'child'
p1921
tp1922
I1
s(S'of'
p1923
S'chester'
p1924
tp1925
I1
s(S'roberts'
p1926
S'said'
p1927
tp1928
I1
s(S'he'
p1929
S'issued'
p1930
tp1931
I1
s(S'be'
p1932
S'rejected'
p1933
tp1934
I1
s(S'that'
p1935
S'each'
p1936
tp1937
I1
s(S'33d'
p1938
S'24th'
p1939
tp1940
I1
s(S'actions'
p1941
S'should'
p1942
tp1943
I1
s(S'he'
p1944
S'asked'
p1945
tp1946
I3
s(S'was'
p1947
S'introduced'
p1948
tp1949
I1
s(S'expected'
p1950
g1685
tp1951
I1
s(S'combined'
p1952
S'programs'
p1953
tp1954
I1
s(S'a'
S'public'
p1955
tp1956
I1
s(S'hill'
p1957
S'it'
p1958
tp1959
I1
s(S'to'
p1960
S'90'
p1961
tp1962
I1
s(S'to'
p1963
S'remedy'
p1964
tp1965
I1
s(S'to'
p1966
g221
tp1967
I1
s(S'cases'
p1968
S'scheduled'
p1969
tp1970
I1
s(S'endorse'
p1971
S'increased'
p1972
tp1973
I1
s(S'lawrence'
p1974
S'a'
tp1975
I1
s(S'brought'
p1976
S'enthusiastic'
p1977
tp1978
I1
s(S'i'
S"didn't"
p1979
tp1980
I1
s(g1552
S'would'
p1981
tp1982
I1
s(S'reportedly'
p1983
g867
tp1984
I1
s(S'at'
p1985
S'church'
p1986
tp1987
I1
s(S'they'
p1988
S'will'
p1989
tp1990
I1
s(S'be'
p1991
S'formally'
p1992
tp1993
I1
s(S'of'
p1994
g1856
tp1995
I1
s(S'before'
p1996
S'adjournment'
p1997
tp1998
I1
s(g242
S'the'
p1999
tp2000
I1
s(S'miller'
p2001
S'county'
p2002
tp2003
I2
s(S'practices'
p2004
S'which'
p2005
tp2006
I1
s(S'two'
p2007
S'other'
p2008
tp2009
I2
s(S'white'
p2010
S'house'
p2011
tp2012
I5
s(S'security'
p2013
S'system'
p2014
tp2015
I1
s(S'an'
p2016
S'increase'
p2017
tp2018
I1
s(g947
S'rehabilitation'
p2019
tp2020
I1
s(g1389
S'in'
p2021
tp2022
I1
s(S'priority'
p2023
S'to'
p2024
tp2025
I1
s(S'encouragement'
p2026
S'to'
p2027
tp2028
I1
s(S'nevertheless'
p2029
S'we'
p2030
tp2031
I1
s(S'grand'
p2032
S'juries'
p2033
tp2034
I1
s(g201
g620
tp2035
I1
s(S'be'
p2036
S'the'
p2037
tp2038
I1
s(g204
S'was'
p2039
tp2040
I1
s(S'to'
p2041
S'insure'
p2042
tp2043
I1
s(S'ask'
p2044
S'the'
p2045
tp2046
I1
s(S'care'
p2047
S'under'
p2048
tp2049
I1
s(S'nurse'
p2050
S'services'
p2051
tp2052
I1
s(S'voters'
p2053
S'to'
p2054
tp2055
I1
s(S'into'
p2056
S'the'
p2057
tp2058
I1
s(S'had'
p2059
S'charged'
p2060
tp2061
I1
s(S'his'
p2062
S'wife'
p2063
tp2064
I1
s(S'and'
p2065
S'inquired'
p2066
tp2067
I1
s(S'veteran'
p2068
S'agriculture'
p2069
tp2070
I1
s(g1048
S'correctness'
p2071
tp2072
I1
s(S'we'
p2073
g68
tp2074
I1
s(S'the'
p2075
S'general'
p2076
tp2077
I1
s(S'against'
p2078
S'taking'
p2079
tp2080
I1
s(S'coordinator'
p2081
g312
tp2082
I1
s(S'last'
p2083
S'monday'
p2084
tp2085
I1
s(S'counties'
p2086
S'of'
p2087
tp2088
I2
s(S'or'
p2089
S'enlarge'
p2090
tp2091
I1
s(S'resolution'
p2092
S'passed'
p2093
tp2094
I2
s(S'sales'
p2095
g1121
tp2096
I1
s(S'i'
S'college'
p2097
tp2098
I1
s(g1406
S'million'
p2099
tp2100
I1
s(S'extremely'
p2101
S'conservative'
p2102
tp2103
I1
s(S'ordinary'
p2104
S'williams'
p2105
tp2106
I1
s(g174
S'state'
p2107
tp2108
I1
s(S'they'
p2109
S'are'
p2110
tp2111
I2
s(S'teacher'
p2112
g1542
tp2113
I1
s(S'health'
p2114
g1210
tp2115
I1
s(S'election'
p2116
S'the'
p2117
tp2118
I1
s(S'county'
p2119
S'must'
p2120
tp2121
I1
s(S'candidates'
p2122
S'davis'
p2123
tp2124
I1
s(S'while'
p2125
S'the'
p2126
tp2127
I1
s(S'customary'
p2128
S'senate'
p2129
tp2130
I1
s(S'medical'
p2131
S'plan'
p2132
tp2133
I1
s(S'customers'
p2134
S'if'
p2135
tp2136
I1
s(S'them'
p2137
S'from'
p2138
tp2139
I1
s(S'deserves'
p2140
S'the'
p2141
tp2142
I1
s(S'dallas'
p2143
g342
tp2144
I1
s(S'be'
p2145
S'a'
tp2146
I2
s(S'the'
p2147
S'referendum'
p2148
tp2149
I1
s(S'too'
p2150
S'was'
p2151
tp2152
I1
s(S'ask'
p2153
S'jail'
p2154
tp2155
I1
s(S'merely'
p2156
S'provide'
p2157
tp2158
I1
s(S'the'
p2159
S'adc'
p2160
tp2161
I2
s(S'firm'
p2162
S'listed'
p2163
tp2164
I1
s(g546
g122
tp2165
I2
s(S'allowed'
p2166
S'to'
p2167
tp2168
I1
s(S'the'
p2169
S'recommendations'
p2170
tp2171
I1
s(S'house'
p2172
g961
tp2173
I1
s(S'cosigners'
p2174
S'of'
p2175
tp2176
I1
s(S'brief'
p2177
S'interlude'
p2178
tp2179
I1
s(S'parkhouse'
p2180
S'the'
p2181
tp2182
I1
s(S'series'
p2183
S'of'
p2184
tp2185
I1
s(S'in'
p2186
S'college'
p2187
tp2188
I1
s(S'fort'
p2189
S'worth'
p2190
tp2191
I2
s(S'by'
p2192
S'ivan'
p2193
tp2194
I1
s(g1043
S'prosecutor'
p2195
tp2196
I1
s(S'retailers'
p2197
S'who'
p2198
tp2199
I1
s(S'committee'
p2200
S'on'
p2201
tp2202
I2
s(S'future'
p2203
S'vacancies'
p2204
tp2205
I1
s(S'limited'
p2206
g1094
tp2207
I1
s(S'each'
p2208
S'illness'
p2209
tp2210
I1
s(S'prison'
p2211
S'plus'
p2212
tp2213
I1
s(S'is'
p2214
S'the'
p2215
tp2216
I1
s(S'state'
p2217
S'courts'
p2218
tp2219
I1
s(S'and'
p2220
S'joe'
p2221
tp2222
I2
s(S'workers'
p2223
g1548
tp2224
I1
s(S'report'
p2225
S'culminating'
p2226
tp2227
I1
s(g1217
S'to'
p2228
tp2229
I1
s(S'listed'
p2230
S'on'
p2231
tp2232
I1
s(S'football'
p2233
S'letterman'
p2234
tp2235
I1
s(S'further'
p2236
S'proposed'
p2237
tp2238
I1
s(S'persuade'
p2239
S'them'
p2240
tp2241
I1
s(S'march'
p2242
S'1'
tp2243
I1
s(S'a'
S'matter'
p2244
tp2245
I1
s(g2178
S'since'
p2246
tp2247
I1
s(S'and'
p2248
S'attention'
p2249
tp2250
I1
s(S'when'
p2251
S'texas'
p2252
tp2253
I1
s(S'was'
p2254
S'directed'
p2255
tp2256
I1
s(S'the'
p2257
S'four'
p2258
tp2259
I1
s(S'day'
p2260
S'of'
p2261
tp2262
I1
s(S'traveled'
p2263
S'highways'
p2264
tp2265
I1
s(S'prevention'
p2266
S'of'
p2267
tp2268
I1
s(S'there'
p2269
S'would'
p2270
tp2271
I2
s(S'bush'
p2272
S'a'
tp2273
I1
s(S'in'
p2274
S'fact'
p2275
tp2276
I1
s(g836
S'extending'
p2277
tp2278
I1
s(S'superintendent'
p2279
S'is'
p2280
tp2281
I1
s(S'at'
p2282
g17
tp2283
I1
s(g1322
S'cox'
p2284
tp2285
I1
s(S'million'
p2286
S'american'
p2287
tp2288
I1
s(g147
S'in'
p2289
tp2290
I1
s(g389
S'who'
p2291
tp2292
I1
s(S'texas'
p2293
g1172
tp2294
I1
s(S'school'
p2295
g1809
tp2296
I1
s(S'monday'
p2297
S'in'
p2298
tp2299
I1
s(S'credit'
p2300
S'in'
p2301
tp2302
I1
s(g219
S'is'
p2303
tp2304
I1
s(S'the'
p2305
S'increase'
p2306
tp2307
I1
s(S'88000'
p2308
S'was'
p2309
tp2310
I1
s(S'by'
p2311
S'appointment'
p2312
tp2313
I1
s(S'priority'
p2314
S'item'
p2315
tp2316
I1
s(S'of'
p2317
g597
tp2318
I1
s(S'as'
p2319
S'his'
p2320
tp2321
I1
s(g81
S'plan'
p2322
tp2323
I1
s(S'a'
S'fight'
p2324
tp2325
I1
s(S'insisted'
p2326
S'that'
p2327
tp2328
I1
s(S'the'
p2329
S'ordinary'
p2330
tp2331
I1
s(S'raises'
p2332
S'colquitt'
p2333
tp2334
I1
s(S'congress'
p2335
S'to'
p2336
tp2337
I2
s(S'wise'
p2338
S'county'
p2339
tp2340
I1
s(g346
S'agency'
p2341
tp2342
I1
s(S'purpose'
p2343
S'of'
p2344
tp2345
I1
s(S'days'
p2346
S'for'
p2347
tp2348
I1
s(S'provide'
p2349
S'this'
p2350
tp2351
I1
s(S'cases'
p2352
S'with'
p2353
tp2354
I1
s(S'an'
p2355
g846
tp2356
I1
s(g2157
g758
tp2357
I1
s(S'weekend'
p2358
S'duty'
p2359
tp2360
I1
s(S'to'
p2361
g1554
tp2362
I1
s(S'election'
p2363
S'were'
p2364
tp2365
I1
s(S"we're"
p2366
S'getting'
p2367
tp2368
I1
s(S'grover'
p2369
S'college'
p2370
tp2371
I1
s(S'would'
p2372
S'increase'
p2373
tp2374
I2
s(S'allowances'
p2375
S'pelham'
p2376
tp2377
I1
s(S'a'
g1743
tp2378
I2
s(S'spent'
p2379
g591
tp2380
I1
s(S'league'
p2381
S'the'
p2382
tp2383
I1
s(S'bench'
p2384
g2065
tp2385
I1
s(S'was'
p2386
S'in'
p2387
tp2388
I1
s(S'subpoenas'
p2389
S'wexler'
p2390
tp2391
I1
s(S'sherman'
p2392
S'gaynor'
p2393
tp2394
I1
s(g1683
S'administrators'
p2395
tp2396
I1
s(S'night'
p2397
S'and'
p2398
tp2399
I1
s(g486
S'companies'
p2400
tp2401
I2
s(S'of'
p2402
g1851
tp2403
I1
s(S'would'
p2404
S'prefer'
p2405
tp2406
I1
s(g1124
S'government'
p2407
tp2408
I1
s(S'a'
S'disproportionate'
p2409
tp2410
I1
s(S'resignation'
p2411
S'had'
p2412
tp2413
I1
s(g141
S'million'
p2414
tp2415
I1
s(S'days'
p2416
S'after'
p2417
tp2418
I1
s(S'but'
p2419
S'who'
p2420
tp2421
I1
s(S'agency'
p2422
S'to'
p2423
tp2424
I1
s(S'karns'
p2425
S'told'
p2426
tp2427
I1
s(S'the'
p2428
S'investigation'
p2429
tp2430
I1
s(S'officials'
p2431
S'to'
p2432
tp2433
I1
s(S'taunted'
p2434
S'bankers'
p2435
tp2436
I1
s(S'cannot'
p2437
g241
tp2438
I1
s(g1646
S'mac'
p2439
tp2440
I1
s(S'no'
p2441
S'word'
p2442
tp2443
I1
s(g1568
S'medicine'
p2444
tp2445
I1
s(S'house'
p2446
S'spokesman'
p2447
tp2448
I1
s(S'teaching'
p2449
S'the'
p2450
tp2451
I1
s(S'taxes'
p2452
S'by'
p2453
tp2454
I1
s(S'weatherford'
p2455
g2326
tp2456
I1
s(S'security'
p2457
S'and'
p2458
tp2459
I1
s(S'with'
p2460
S'the'
p2461
tp2462
I3
s(S'office'
p2463
S'the'
p2464
tp2465
I1
s(S'the'
p2466
S"president's"
p2467
tp2468
I2
s(S'martin'
p2469
g1447
tp2470
I1
s(g2215
g1588
tp2471
I1
s(S'1958'
p2472
S'with'
p2473
tp2474
I1
s(g624
S'than'
p2475
tp2476
I1
s(g2110
g2449
tp2477
I1
s(S'other'
p2478
S'parts'
p2479
tp2480
I1
s(S'election'
p2481
S'ballot'
p2482
tp2483
I1
s(S'will'
p2484
S'decrease'
p2485
tp2486
I1
s(g6
S'of'
p2487
tp2488
I1
s(S'own'
p2489
S'annual'
p2490
tp2491
I1
s(S'subjects'
p2492
S'a'
tp2493
I1
s(S'record'
p2494
S'vote'
p2495
tp2496
I1
s(S'the'
p2497
S'legal'
p2498
tp2499
I1
s(S'pistol'
p2500
S'stood'
p2501
tp2502
I1
s(S'to'
p2503
S'become'
p2504
tp2505
I1
s(S'individuals'
p2506
S'in'
p2507
tp2508
I1
s(g483
S'should'
p2509
tp2510
I1
s(g2090
S'medical'
p2511
tp2512
I1
s(S'its'
p2513
S'water'
p2514
tp2515
I1
s(S'of'
p2516
S'voters'
p2517
tp2518
I1
s(S'primary'
p2519
S'which'
p2520
tp2521
I1
s(S'1'
S'four'
p2522
tp2523
I1
s(S'horse'
p2524
S'race'
p2525
tp2526
I2
s(g417
S'texas'
p2527
tp2528
I5
s(S'argued'
p2529
S'that'
p2530
tp2531
I2
s(S'there'
p2532
g1067
tp2533
I1
s(S'for'
p2534
S'city'
p2535
tp2536
I1
s(g1259
S'excise'
p2537
tp2538
I1
s(S'be'
p2539
S'imposed'
p2540
tp2541
I1
s(S'former'
p2542
S'policemen'
p2543
tp2544
I1
s(g1346
S'4'
tp2545
I2
s(S'welfare'
p2546
S'departments'
p2547
tp2548
I1
s(g924
S'to'
p2549
tp2550
I1
s(S'place'
p2551
S'of'
p2552
tp2553
I1
s(S'from'
p2554
S'30'
p2555
tp2556
I1
s(S'friendly'
p2557
S'test'
p2558
tp2559
I1
s(S'a'
S'long'
p2560
tp2561
I1
s(S'are'
p2562
S'some'
p2563
tp2564
I1
s(g891
S'said'
p2565
tp2566
I1
s(g603
S'tax'
p2567
tp2568
I1
s(S'daniel'
p2569
S'said'
p2570
tp2571
I1
s(S'nine'
p2572
S'days'
p2573
tp2574
I1
s(S'very'
p2575
S'serious'
p2576
tp2577
I1
s(S'would'
p2578
S'benefit'
p2579
tp2580
I1
s(S'veteran'
p2581
S'jackson'
p2582
tp2583
I1
s(S'71'
p2584
S'it'
p2585
tp2586
I1
s(g1017
S'widespread'
p2587
tp2588
I1
s(S'irregularities'
p2589
S'at'
p2590
tp2591
I1
s(S'community'
p2592
S'visiting'
p2593
tp2594
I1
s(S'of'
p2595
S'choice'
p2596
tp2597
I1
s(S'items'
p2598
S'in'
p2599
tp2600
I1
s(S'the'
p2601
S'floor'
p2602
tp2603
I2
s(S'violence'
p2604
S'the'
p2605
tp2606
I1
s(S'677'
p2607
S'persons'
p2608
tp2609
I1
s(S'the'
p2610
g446
tp2611
I1
s(S'a'
g1703
tp2612
I2
s(S'13'
p2613
S'years'
p2614
tp2615
I1
s(S'houston'
p2616
g2112
tp2617
I1
s(g265
S'abuse'
p2618
tp2619
I1
s(g900
S'getting'
p2620
tp2621
I1
s(S'college'
p2622
g1749
tp2623
I1
s(g847
S'of'
p2624
tp2625
I1
s(g295
g2274
tp2626
I1
s(S'the'
p2627
S'plan'
p2628
tp2629
I2
s(S'15000000'
p2630
g1088
tp2631
I1
s(S'rural'
p2632
S'road'
p2633
tp2634
I1
s(S'witnesses'
p2635
S'left'
p2636
tp2637
I1
s(S'permit'
p2638
S'to'
p2639
tp2640
I1
s(S'people'
p2641
S'when'
p2642
tp2643
I1
s(S'security'
p2644
S'or'
p2645
tp2646
I1
s(S'his'
p2647
S'petition'
p2648
tp2649
I1
s(g2212
S'a'
tp2650
I1
s(S'be'
p2651
S'succeeded'
p2652
tp2653
I2
s(S'previous'
p2654
g2032
tp2655
I1
s(S'statements'
p2656
S'privately'
p2657
tp2658
I1
s(S'these'
p2659
S'would'
p2660
tp2661
I1
s(g1595
S'enabling'
p2662
tp2663
I1
s(g2042
S'order'
p2664
tp2665
I1
s(S'was'
p2666
S'denied'
p2667
tp2668
I1
s(S'by'
p2669
S'1'
tp2670
I1
s(S'the'
p2671
S'berlin'
p2672
tp2673
I1
s(S'bills'
p2674
S'were'
p2675
tp2676
I1
s(g349
S'of'
p2677
tp2678
I1
s(S'ledford'
p2679
S'of'
p2680
tp2681
I1
s(S'serious'
p2682
S'causes'
p2683
tp2684
I1
s(g198
S'was'
p2685
tp2686
I1
s(S'be'
p2687
g2166
tp2688
I1
s(S'of'
p2689
S'them'
p2690
tp2691
I1
s(S'expected'
p2692
g449
tp2693
I1
s(S'for'
p2694
S'repair'
p2695
tp2696
I1
s(S'southwestern'
p2697
S'state'
p2698
tp2699
I1
s(S'load'
p2700
S'needed'
p2701
tp2702
I1
s(S'who'
p2703
S'defeated'
p2704
tp2705
I1
s(S'to'
p2706
S'reduce'
p2707
tp2708
I1
s(S'election'
p2709
S'campaign'
p2710
tp2711
I1
s(S'work'
p2712
S'president'
p2713
tp2714
I1
s(S'four'
p2715
g2416
tp2716
I1
s(S'needy'
p2717
S'aged'
p2718
tp2719
I1
s(S'law'
p2720
S'providing'
p2721
tp2722
I1
s(g489
g431
tp2723
I1
s(S'occupation'
p2724
S'license'
p2725
tp2726
I1
s(S'by'
p2727
S'an'
p2728
tp2729
I2
s(S'to'
p2730
S'elaborate'
p2731
tp2732
I1
s(S'unmeritorious'
p2733
S'criticisms'
p2734
tp2735
I1
s(S'the'
p2736
S'proposal'
p2737
tp2738
I2
s(S'to'
p2739
S'achieve'
p2740
tp2741
I1
s(S'of'
p2742
S'750'
p2743
tp2744
I1
s(g1668
g1115
tp2745
I3
s(g1732
g2162
tp2746
I1
s(S'been'
p2747
S'on'
p2748
tp2749
I1
s(S'the'
p2750
S'social'
p2751
tp2752
I4
s(S'dollars'
p2753
g244
tp2754
I2
s(S'community'
p2755
g970
tp2756
I1
s(S'200'
p2757
g1908
tp2758
I1
s(g2407
S'would'
p2759
tp2760
I1
s(S'mayor'
p2761
S'hartsfield'
p2762
tp2763
I1
s(S'held'
p2764
S'8'
tp2765
I1
s(g459
S'property'
p2766
tp2767
I1
s(S'fundamentally'
p2768
S'illegal'
p2769
tp2770
I1
s(S'fulton'
p2771
S'superior'
p2772
tp2773
I2
s(S'they'
p2774
S'were'
p2775
tp2776
I1
s(S'action'
p2777
S'because'
p2778
tp2779
I1
s(S"ordinary's"
p2780
g1187
tp2781
I1
s(S'receive'
p2782
S'some'
p2783
tp2784
I1
s(S'program'
p2785
S'of'
p2786
tp2787
I2
s(S'program'
p2788
S'the'
p2789
tp2790
I2
s(S'care'
p2791
S'moreover'
p2792
tp2793
I1
s(S'employment'
p2794
S'because'
p2795
tp2796
I1
s(S'president'
p2797
S"eisenhower's"
p2798
tp2799
I1
s(S'the'
p2800
S'fire'
p2801
tp2802
I1
s(S'that'
p2803
S'fulton'
p2804
tp2805
I1
s(S'the'
p2806
g200
tp2807
I2
s(S'medical'
p2808
S'research'
p2809
tp2810
I2
s(S'as'
p2811
S'of'
p2812
tp2813
I1
s(S'one'
p2814
S'validated'
p2815
tp2816
I1
s(S'case'
p2817
g2425
tp2818
I1
s(S'amount'
p2819
g1373
tp2820
I1
s(S'more'
p2821
S'population'
p2822
tp2823
I1
s(g1009
g443
tp2824
I1
s(S'out'
p2825
S'pelham'
p2826
tp2827
I1
s(g2442
S'of'
p2828
tp2829
I1
s(S'goes'
p2830
g1327
tp2831
I1
s(g971
S'the'
p2832
tp2833
I1
s(S'would'
p2834
S'relieve'
p2835
tp2836
I1
s(S'criticized'
p2837
S'the'
p2838
tp2839
I1
s(S'committee'
p2840
S'to'
p2841
tp2842
I1
s(S'no'
p2843
S'prediction'
p2844
tp2845
I1
s(S'pay'
p2846
S'4year'
p2847
tp2848
I1
s(S'this'
p2849
S'money'
p2850
tp2851
I1
s(S'result'
p2852
S'of'
p2853
tp2854
I1
s(S'age'
p2855
S'at'
p2856
tp2857
I1
s(S'at'
p2858
S'fort'
p2859
tp2860
I1
s(g1709
S'part'
p2861
tp2862
I1
s(S'atlanta'
p2863
S'police'
p2864
tp2865
I1
s(g2033
S'the'
p2866
tp2867
I1
s(g683
S'fulton'
p2868
tp2869
I1
s(S'of'
p2870
S'our'
p2871
tp2872
I2
s(g2226
S'a'
tp2873
I1
s(S'misuse'
p2874
S'of'
p2875
tp2876
I1
s(S'with'
p2877
S'absolute'
p2878
tp2879
I1
s(S'for'
p2880
S'medical'
p2881
tp2882
I1
s(g1151
S'members'
p2883
tp2884
I1
s(g808
g752
tp2885
I1
s(g2039
S'asked'
p2886
tp2887
I1
s(S'it'
p2888
S'says'
p2889
tp2890
I1
s(S'before'
p2891
g1234
tp2892
I1
s(g1271
S'the'
p2893
tp2894
I2
s(S'the'
p2895
S'little'
p2896
tp2897
I1
s(g715
S'district'
p2898
tp2899
I1
s(S'out'
p2900
S'ratcliff'
p2901
tp2902
I1
s(S'20'
p2903
S'new'
p2904
tp2905
I2
s(S'to'
p2906
S'making'
p2907
tp2908
I1
s(S'the'
p2909
S'meantime'
p2910
tp2911
I1
s(S'close'
p2912
S'of'
p2913
tp2914
I1
s(S'committee'
p2915
S'can'
p2916
tp2917
I1
s(S'on'
p2918
g2524
tp2919
I2
s(S'schley'
p2920
S'county'
p2921
tp2922
I1
s(S'the'
p2923
S'validity'
p2924
tp2925
I1
s(g844
g1697
tp2926
I1
s(g1188
S'has'
p2927
tp2928
I2
s(S'jury'
p2929
S'recommended'
p2930
tp2931
I2
s(S'similar'
p2932
g2092
tp2933
I1
s(S'stimulatory'
p2934
S'grants'
p2935
tp2936
I1
s(S'give'
p2937
S'enough'
p2938
tp2939
I1
s(S'new'
p2940
S'bonds'
p2941
tp2942
I1
s(S'for'
p2943
S'seven'
p2944
tp2945
I1
s(S'medical'
p2946
g1902
tp2947
I2
s(S'battle'
p2948
S'in'
p2949
tp2950
I1
s(S'violate'
p2951
g908
tp2952
I1
s(S'one'
p2953
S'candidate'
p2954
tp2955
I1
s(S'two'
p2956
S'of'
p2957
tp2958
I1
s(S'attend'
p2959
S'the'
p2960
tp2961
I3
s(S'technology'
p2962
S'during'
p2963
tp2964
I1
s(S'the'
p2965
S'administration'
p2966
tp2967
I1
s(g2822
S'require'
p2968
tp2969
I1
s(g1468
S'was'
p2970
tp2971
I1
s(S'benefits'
p2972
g1864
tp2973
I1
s(S'prepayment'
p2974
S'of'
p2975
tp2976
I1
s(g1059
S'said'
p2977
tp2978
I2
s(S'honor'
p2979
S'replied'
p2980
tp2981
I1
s(S'passed'
p2982
S'the'
p2983
tp2984
I1
s(S'taxes'
p2985
S'texans'
p2986
tp2987
I1
s(S'are'
p2988
S'made'
p2989
tp2990
I1
s(S'the'
p2991
S'principal'
p2992
tp2993
I1
s(S'extern'
p2994
S'be'
p2995
tp2996
I1
s(g1463
S'the'
p2997
tp2998
I1
s(S'each'
p2999
S'medical'
p3000
tp3001
I1
s(S'must'
p3002
S'solve'
p3003
tp3004
I2
s(S'legislature'
p3005
S'and'
p3006
tp3007
I1
s(S"commissioner's"
p3008
g2463
tp3009
I1
s(S'the'
p3010
S'cost'
p3011
tp3012
I2
s(S'is'
p3013
S'approved'
p3014
tp3015
I1
s(S'who'
p3016
g149
tp3017
I1
s(S'a'
S'poll'
p3018
tp3019
I1
s(S'the'
p3020
S'criminal'
p3021
tp3022
I3
s(S'kind'
p3023
S'of'
p3024
tp3025
I1
s(g2664
S'this'
p3026
tp3027
I1
s(S'smooth'
p3028
S'the'
p3029
tp3030
I1
s(g1828
g816
tp3031
I1
s(S'recommendations'
p3032
S'by'
p3033
tp3034
I1
s(S'against'
p3035
S'dallas'
p3036
tp3037
I1
s(S'friday'
p3038
g2647
tp3039
I1
s(g2409
S'burden'
p3040
tp3041
I1
s(g2453
g821
tp3042
I1
s(S'would'
p3043
g1298
tp3044
I1
s(S'by'
p3045
S'demand'
p3046
tp3047
I2
s(S'and'
p3048
S'veiled'
p3049
tp3050
I1
s(S'the'
p3051
g1938
tp3052
I1
s(S'the'
p3053
S'april'
p3054
tp3055
I2
s(g2218
S'for'
p3056
tp3057
I1
s(g1185
S'obtain'
p3058
tp3059
I2
s(S'contention'
p3060
g2666
tp3061
I1
s(g1955
S'hearing'
p3062
tp3063
I2
s(S'it'
p3064
S'berry'
p3065
tp3066
I1
s(S'all'
p3067
g981
tp3068
I1
s(S'affairs'
p3069
S'committee'
p3070
tp3071
I1
s(g2275
g380
tp3072
I1
s(S'administrator'
p3073
S'of'
p3074
tp3075
I1
s(g1804
S'grants'
p3076
tp3077
I2
s(S'the'
p3078
S'largest'
p3079
tp3080
I1
s(S'it'
p3081
S'went'
p3082
tp3083
I1
s(S'a'
g958
tp3084
I1
s(S'of'
p3085
S'plainview'
p3086
tp3087
I1
s(S'50'
p3088
S'millions'
p3089
tp3090
I1
s(S'between'
p3091
S'6'
tp3092
I1
s(g2835
S'real'
p3093
tp3094
I1
s(S'who'
p3095
S'backed'
p3096
tp3097
I1
s(S'is'
p3098
S'at'
p3099
tp3100
I1
s(S'couple'
p3101
S'has'
p3102
tp3103
I1
s(g435
S'a'
tp3104
I3
s(S'washington'
p3105
g3016
tp3106
I1
s(S'65'
p3107
S'who'
p3108
tp3109
I2
s(g856
S'tomorrow'
p3110
tp3111
I1
s(S'in'
p3112
S'oklahoma'
p3113
tp3114
I1
s(g3029
g833
tp3115
I1
s(S'be'
p3116
S'received'
p3117
tp3118
I1
s(g99
S'to'
p3119
tp3120
I2
s(S'tossed'
p3121
g2056
tp3122
I1
s(S'being'
p3123
g405
tp3124
I1
s(S'general'
p3125
S'payroll'
p3126
tp3127
I1
s(S'much'
p3128
g2880
tp3129
I1
s(S'additional'
p3130
S'deputies'
p3131
tp3132
I1
s(S'mclemore'
p3133
S'who'
p3134
tp3135
I1
s(S'boosts'
p3136
S'would'
p3137
tp3138
I1
s(S'to'
p3139
S'be'
p3140
tp3141
I3
s(S'complained'
p3142
g1573
tp3143
I1
s(g105
S'and'
p3144
tp3145
I6
s(S'resigned'
p3146
S'tuesday'
p3147
tp3148
I1
s(S'donations'
p3149
S'of'
p3150
tp3151
I1
s(S'than'
p3152
g637
tp3153
I1
s(S'shot'
p3154
S'himself'
p3155
tp3156
I1
s(S'public'
p3157
S'relations'
p3158
tp3159
I1
s(S'a'
S'special'
p3160
tp3161
I2
s(S'the'
p3162
g2717
tp3163
I1
s(S'construction'
p3164
S'work'
p3165
tp3166
I1
s(S'the'
p3167
S'president'
p3168
tp3169
I11
s(S'this'
p3170
S'court'
p3171
tp3172
I1
s(S'the'
p3173
S'socalled'
p3174
tp3175
I1
s(S'employment'
p3176
S'was'
p3177
tp3178
I1
s(S'report'
p3179
S'called'
p3180
tp3181
I1
s(S'however'
p3182
S'it'
p3183
tp3184
I1
s(g1577
S'of'
p3185
tp3186
I1
s(S'startled'
p3187
S'observers'
p3188
tp3189
I1
s(S'missing'
p3190
g2943
tp3191
I1
s(S'no'
p3192
g2494
tp3193
I1
s(S'elected'
p3194
S'texas'
p3195
tp3196
I1
s(g765
g2906
tp3197
I2
s(S'governor'
p3198
S'would'
p3199
tp3200
I1
s(S'this'
p3201
S'program'
p3202
tp3203
I1
s(S'a'
g1714
tp3204
I1
s(g1533
S'a'
tp3205
I7
s(S'of'
p3206
S'250'
p3207
tp3208
I1
s(S'between'
p3209
S'the'
p3210
tp3211
I1
s(S'he'
p3212
S'said'
p3213
tp3214
I9
s(S'the'
p3215
S'traditional'
p3216
tp3217
I1
s(S'bills'
p3218
S'they'
p3219
tp3220
I1
s(S'a'
g256
tp3221
I1
s(S'felix'
p3222
S'tabb'
p3223
tp3224
I1
s(S'the'
p3225
S'23d'
p3226
tp3227
I4
s(S'its'
p3228
S'fate'
p3229
tp3230
I1
s(S'home'
p3231
S'construction'
p3232
tp3233
I1
s(S'superintendent'
p3234
S'elected'
p3235
tp3236
I1
s(S'the'
p3237
S'recommendation'
p3238
tp3239
I1
s(S'to'
p3240
S'if'
p3241
tp3242
I1
s(S'a'
g1047
tp3243
I1
s(S'the'
p3244
S'constitution'
p3245
tp3246
I1
s(S'cases'
p3247
S'karns'
p3248
tp3249
I1
s(g281
g11
tp3250
I1
s(S'defeated'
p3251
S'in'
p3252
tp3253
I1
s(S'which'
p3254
S'had'
p3255
tp3256
I1
s(S'by'
p3257
S"russia's"
p3258
tp3259
I1
s(S'message'
p3260
S'did'
p3261
tp3262
I1
s(S'plan'
p3263
S'carries'
p3264
tp3265
I1
s(S'help'
p3266
S'pay'
p3267
tp3268
I1
s(S'wexler'
p3269
S'that'
p3270
tp3271
I1
s(S'property'
p3272
S'act'
p3273
tp3274
I1
s(S'smalltown'
p3275
S'legislators'
p3276
tp3277
I1
s(S'other'
p3278
g2946
tp3279
I1
s(S'dirksen'
p3280
S'and'
p3281
tp3282
I1
s(S'clarence'
p3283
g841
tp3284
I1
s(S'them'
p3285
S'before'
p3286
tp3287
I1
s(S'bank'
p3288
S'accounts'
p3289
tp3290
I1
s(g123
S'charles'
p3291
tp3292
I1
s(S'as'
p3293
g2635
tp3294
I1
s(S'property'
p3295
S'to'
p3296
tp3297
I1
s(S'all'
p3298
g1312
tp3299
I1
s(S'say'
p3300
S"it's"
p3301
tp3302
I1
s(S'the'
p3303
S'ponies'
p3304
tp3305
I1
s(g3281
S'house'
p3306
tp3307
I1
s(S'and'
p3308
g1667
tp3309
I1
s(S'governor'
p3310
S'in'
p3311
tp3312
I1
s(g432
S'election'
p3313
tp3314
I1
s(S'the'
p3315
S'party'
p3316
tp3317
I1
s(S'the'
p3318
S'next'
p3319
tp3320
I2
s(S'the'
p3321
S'pricing'
p3322
tp3323
I1
s(S'east'
p3324
S'louis'
p3325
tp3326
I1
s(S'interest'
p3327
S'in'
p3328
tp3329
I1
s(S'accept'
p3330
S'gifts'
p3331
tp3332
I1
s(S'fight'
p3333
S'in'
p3334
tp3335
I1
s(g1810
S'been'
p3336
tp3337
I2
s(S'in'
p3338
S"saturday's"
p3339
tp3340
I1
s(S'voluntary'
p3341
S'care'
p3342
tp3343
I1
s(S'monthly'
p3344
S'cost'
p3345
tp3346
I1
s(S'petitions'
p3347
S'requesting'
p3348
tp3349
I1
s(g2549
S'wait'
p3350
tp3351
I1
s(S'this'
p3352
S'amounts'
p3353
tp3354
I1
s(S"couldn't"
p3355
g2937
tp3356
I1
s(S'qualified'
p3357
S'young'
p3358
tp3359
I1
s(S'raises'
p3360
S'for'
p3361
tp3362
I1
s(S'of'
p3363
S'additional'
p3364
tp3365
I1
s(g2258
S'other'
p3366
tp3367
I1
s(S'and'
p3368
S'its'
p3369
tp3370
I1
s(S'approved'
p3371
S'will'
p3372
tp3373
I1
s(g3049
S'threats'
p3374
tp3375
I1
s(S'pro'
p3376
S'letters'
p3377
tp3378
I1
s(S'said'
p3379
S'they'
p3380
tp3381
I1
s(S'bill'
p3382
S'hollowell'
p3383
tp3384
I1
s(S'establishment'
p3385
S'in'
p3386
tp3387
I1
s(g1331
S'calls'
p3388
tp3389
I1
s(S'stake'
p3390
S'my'
p3391
tp3392
I1
s(S'a'
g2616
tp3393
I1
s(S'help'
p3394
S'dallas'
p3395
tp3396
I1
s(S'of'
p3397
S'age'
p3398
tp3399
I1
s(S'for'
p3400
S'up'
p3401
tp3402
I2
s(S'of'
p3403
S'friday'
p3404
tp3405
I1
s(g3388
g666
tp3406
I1
s(S'to'
p3407
g1737
tp3408
I1
s(S'governor'
p3409
S'speaker'
p3410
tp3411
I1
s(S'on'
p3412
S'what'
p3413
tp3414
I1
s(S'this'
p3415
S'problem'
p3416
tp3417
I1
s(S'seminole'
p3418
S'sponsor'
p3419
tp3420
I1
s(S'about'
p3421
S'the'
p3422
tp3423
I1
s(g3235
S'as'
p3424
tp3425
I1
s(g615
g3407
tp3426
I1
s(S'year'
p3427
S'increase'
p3428
tp3429
I1
s(g2886
S'whether'
p3430
tp3431
I1
s(S'schools'
p3432
S'for'
p3433
tp3434
I3
s(S'1923'
p3435
S'the'
p3436
tp3437
I1
s(S'improve'
p3438
S'nursing'
p3439
tp3440
I1
s(S'his'
p3441
S'college'
p3442
tp3443
I1
s(g853
S'says'
p3444
tp3445
I1
s(g1168
S'yet'
p3446
tp3447
I1
s(S'children'
p3448
S'in'
p3449
tp3450
I1
s(S'claims'
p3451
S'precedent'
p3452
tp3453
I1
s(S'2'
S'fulton'
p3454
tp3455
I1
s(S'whipped'
p3456
g699
tp3457
I1
s(S'law'
p3458
S'may'
p3459
tp3460
I1
s(S'the'
p3461
S'county'
p3462
tp3463
I3
s(S'where'
p3464
S'some'
p3465
tp3466
I1
s(g1750
g3283
tp3467
I1
s(S'which'
p3468
S'heard'
p3469
tp3470
I1
s(S'future'
p3471
S'fulton'
p3472
tp3473
I1
s(S'both'
p3474
S'governments'
p3475
tp3476
I1
s(S'of'
p3477
S'the'
p3478
tp3479
I67
s(S'grants'
p3480
S'to'
p3481
tp3482
I5
s(S'meeting'
p3483
S'held'
p3484
tp3485
I1
s(S'sound'
p3486
S'health'
p3487
tp3488
I1
s(S'take'
p3489
g3285
tp3490
I1
s(S'acts'
p3491
S'of'
p3492
tp3493
I1
s(S'court'
p3494
S'faced'
p3495
tp3496
I1
s(g1073
g3244
tp3497
I4
s(S'of'
p3498
S'oklahoma'
p3499
tp3500
I2
s(S'and'
p3501
S'there'
p3502
tp3503
I2
s(S'6'
S'and'
p3504
tp3505
I1
s(S'care'
p3506
S'the'
p3507
tp3508
I1
s(S'bankers'
p3509
S'daniel'
p3510
tp3511
I1
s(g1439
S'a'
tp3512
I1
s(S'banks'
p3513
S'insurance'
p3514
tp3515
I2
s(S'campaign'
p3516
g2081
tp3517
I1
s(S"kennedy's"
p3518
S'in'
p3519
tp3520
I1
s(S'will'
p3521
S'also'
p3522
tp3523
I1
s(S'governor'
p3524
S'lieutenant'
p3525
tp3526
I1
s(S'contempt'
p3527
S'of'
p3528
tp3529
I1
s(g3369
S'appointed'
p3530
tp3531
I1
s(g403
g2286
tp3532
I1
s(S'billion'
p3533
S'dollars'
p3534
tp3535
I2
s(S'drafted'
p3536
g1899
tp3537
I1
s(S'for'
p3538
g1470
tp3539
I1
s(S'property'
p3540
S'it'
p3541
tp3542
I1
s(S'work'
p3543
S'on'
p3544
tp3545
I1
s(S'callan'
p3546
g3154
tp3547
I1
s(S'a'
S'first'
p3548
tp3549
I1
s(S"court's"
p3550
g935
tp3551
I1
s(S'case'
p3552
S'of'
p3553
tp3554
I1
s(S'read'
p3555
S'monday'
p3556
tp3557
I1
s(S'springs'
p3558
S'this'
p3559
tp3560
I1
s(g2769
g1058
tp3561
I1
s(S'every'
p3562
S'person'
p3563
tp3564
I1
s(S'their'
p3565
g494
tp3566
I1
s(S'enact'
p3567
S'it'
p3568
tp3569
I1
s(S'court'
p3570
S'austin'
p3571
tp3572
I1
s(S'defendants'
p3573
S'washington'
p3574
tp3575
I1
s(S'to'
p3576
g3088
tp3577
I1
s(S'saw'
p3578
S'colquitt'
p3579
tp3580
I1
s(S'is'
p3581
g25
tp3582
I1
s(S'present'
p3583
S'10'
p3584
tp3585
I1
s(S'regarding'
p3586
S"atlanta's"
p3587
tp3588
I1
s(S'this'
p3589
S'procedure'
p3590
tp3591
I1
s(g2002
S'has'
p3592
tp3593
I1
s(g1625
S'to'
p3594
tp3595
I2
s(S'any'
p3596
S'malingering'
p3597
tp3598
I1
s(S'fund'
p3599
S'the'
p3600
tp3601
I1
s(g944
g2073
tp3602
I1
s(g3563
S'will'
p3603
tp3604
I1
s(S'22'
p3605
g2736
tp3606
I1
s(S'but'
p3607
S'i'
tp3608
I1
s(S'you'
p3609
S'destroy'
p3610
tp3611
I1
s(S"formby's"
p3612
S'plan'
p3613
tp3614
I1
s(S'the'
p3615
S'concessionaires'
p3616
tp3617
I1
s(g1494
S'cod'
p3618
tp3619
I1
s(S'also'
p3620
S'would'
p3621
tp3622
I1
s(S'aspects'
p3623
S'the'
p3624
tp3625
I1
s(S'bill'
p3626
g1670
tp3627
I1
s(S'telephone'
p3628
g1654
tp3629
I1
s(S'committee'
p3630
S'members'
p3631
tp3632
I1
s(S'were'
p3633
S'doing'
p3634
tp3635
I1
s(g2639
S'carry'
p3636
tp3637
I1
s(S'operation'
p3638
S'of'
p3639
tp3640
I1
s(S'a'
S'candidate'
p3641
tp3642
I4
s(g670
S'tax'
p3643
tp3644
I1
s(S'inadequate'
p3645
g360
tp3646
I1
s(g973
S'school'
p3647
tp3648
I2
s(S'out'
p3649
S'would'
p3650
tp3651
I1
s(g3252
S'congress'
p3652
tp3653
I1
s(g1504
g2251
tp3654
I1
s(S'with'
p3655
g2797
tp3656
I1
s(S'vandiver'
p3657
S'has'
p3658
tp3659
I1
s(g1337
S'option'
p3660
tp3661
I1
s(S'revised'
p3662
S'to'
p3663
tp3664
I1
s(S'a'
S'proportionate'
p3665
tp3666
I1
s(g2435
S'appearing'
p3667
tp3668
I1
s(S'by'
p3669
S'at'
p3670
tp3671
I1
s(S'build'
p3672
g2089
tp3673
I1
s(S'similar'
p3674
S'plan'
p3675
tp3676
I1
s(g2320
S'first'
p3677
tp3678
I1
s(g598
S'an'
p3679
tp3680
I1
s(S'in'
p3681
S'federal'
p3682
tp3683
I1
s(g3210
S'six'
p3684
tp3685
I1
s(S'chairman'
p3686
g3382
tp3687
I1
s(S'facilities'
p3688
S'the'
p3689
tp3690
I1
s(S'mayor'
p3691
g1706
tp3692
I1
s(S'irregularities'
p3693
S'in'
p3694
tp3695
I1
s(S'year'
p3696
S'hailed'
p3697
tp3698
I1
s(S'and'
p3699
g185
tp3700
I1
s(S'texas'
p3701
S'a'
tp3702
I2
s(S'programs'
p3703
S'the'
p3704
tp3705
I1
s(S'with'
p3706
S'roberts'
p3707
tp3708
I1
s(g1560
S'representatives'
p3709
tp3710
I1
s(S'statements'
p3711
S'may'
p3712
tp3713
I1
s(g310
S'adjournment'
p3714
tp3715
I1
s(S'of'
p3716
g2755
tp3717
I1
s(g2783
S'portion'
p3718
tp3719
I1
s(S'for'
p3720
g2632
tp3721
I2
s(S'the'
p3722
S'best'
p3723
tp3724
I1
s(S'of'
p3725
S'highway'
p3726
tp3727
I1
s(S'and'
p3728
g2189
tp3729
I2
s(S'annual'
p3730
g2724
tp3731
I1
s(S'jones'
p3732
S'of'
p3733
tp3734
I1
s(g361
g536
tp3735
I1
s(S'are'
p3736
S'going'
p3737
tp3738
I1
s(S'a'
g533
tp3739
I2
s(S'public'
p3740
g723
tp3741
I1
s(S'the'
p3742
S'quickie'
p3743
tp3744
I1
s(S'for'
p3745
S'divorce'
p3746
tp3747
I1
s(S'without'
p3748
S'dissent'
p3749
tp3750
I1
s(S'charge'
p3751
g3477
tp3752
I1
s(S'enforce'
p3753
g3045
tp3754
I1
s(S'county'
p3755
S'legislator'
p3756
tp3757
I1
s(g1409
S'involved'
p3758
tp3759
I2
s(S'voting'
p3760
g1184
tp3761
I1
s(S'is'
p3762
S'able'
p3763
tp3764
I1
s(g3726
S'reconstruction'
p3765
tp3766
I1
s(S'opposes'
p3767
g116
tp3768
I1
s(S'according'
p3769
S'to'
p3770
tp3771
I1
s(g2543
S'now'
p3772
tp3773
I1
s(S'topics'
p3774
S'among'
p3775
tp3776
I1
s(g322
g3280
tp3777
I1
s(g1095
S'discrimination'
p3778
tp3779
I1
s(S'was'
p3780
S'learned'
p3781
tp3782
I1
s(S'enabling'
p3783
S'legislation'
p3784
tp3785
I1
s(S'who'
p3786
S'last'
p3787
tp3788
I1
s(S'year'
p3789
S'next'
p3790
tp3791
I1
s(S'crisis'
p3792
S'precipitated'
p3793
tp3794
I1
s(S'state'
p3795
S'there'
p3796
tp3797
I1
s(g316
S'sounded'
p3798
tp3799
I1
s(g1395
S'was'
p3800
tp3801
I1
s(S'of'
p3802
g1202
tp3803
I2
s(S'who'
p3804
S'have'
p3805
tp3806
I1
s(S'you'
p3807
S'mean'
p3808
tp3809
I1
s(S'by'
p3810
g394
tp3811
I1
s(g3616
S'for'
p3812
tp3813
I1
s(S'nationwide'
p3814
S'television'
p3815
tp3816
I1
s(g3446
g3421
tp3817
I1
s(S'estimated'
p3818
S'there'
p3819
tp3820
I1
s(g1813
S'was'
p3821
tp3822
I1
s(S'prices'
p3823
S'reasonable'
p3824
tp3825
I1
s(S'date'
p3826
S'so'
p3827
tp3828
I1
s(S'cent'
p3829
S'325'
p3830
tp3831
I1
s(S'preserving'
p3832
S'family'
p3833
tp3834
I1
s(S'except'
p3835
S'bill'
p3836
tp3837
I1
s(S'against'
p3838
g2607
tp3839
I1
s(S'laws'
p3840
S'studied'
p3841
tp3842
I1
s(S'every'
p3843
S'time'
p3844
tp3845
I1
s(S'people'
p3846
g3736
tp3847
I1
s(S'which'
p3848
g3630
tp3849
I1
s(g1025
S'but'
p3850
tp3851
I1
s(S'cover'
p3852
S'doctor'
p3853
tp3854
I1
s(S'would'
p3855
S'pay'
p3856
tp3857
I2
s(S'state'
p3858
S'to'
p3859
tp3860
I1
s(S'his'
p3861
S'plan'
p3862
tp3863
I1
s(S'which'
p3864
g2569
tp3865
I1
s(S'the'
p3866
g1370
tp3867
I1
s(S'still'
p3868
S'be'
p3869
tp3870
I1
s(S'bachelor'
p3871
S'of'
p3872
tp3873
I1
s(S'the'
p3874
S'4year'
p3875
tp3876
I1
s(S'and'
p3877
S'alpharetta'
p3878
tp3879
I1
s(S'was'
p3880
g2441
tp3881
I3
s(S'housing'
p3882
S'chief'
p3883
tp3884
I1
s(S'covered'
p3885
S'by'
p3886
tp3887
I1
s(S'better'
p3888
g1156
tp3889
I1
s(S'on'
p3890
S'brokers'
p3891
tp3892
I1
s(g129
g215
tp3893
I1
s(S'committee'
p3894
S'davis'
p3895
tp3896
I1
s(g735
S'got'
p3897
tp3898
I1
s(S"year's"
p3899
S'work'
p3900
tp3901
I1
s(S'title'
p3902
S'law'
p3903
tp3904
I1
s(S'under'
p3905
S'committee'
p3906
tp3907
I1
s(S'the'
p3908
S'prelude'
p3909
tp3910
I1
s(S'the'
p3911
S'house'
p3912
tp3913
I9
s(g3679
g143
tp3914
I1
s(g3364
S'rural'
p3915
tp3916
I1
s(S'for'
p3917
S'all'
p3918
tp3919
I2
s(S'day'
p3920
S'school'
p3921
tp3922
I1
s(S'the'
p3923
g167
tp3924
I1
s(S'washington'
p3925
S'9'
tp3926
I2
s(S'purchasing'
p3927
S'departments'
p3928
tp3929
I1
s(S'the'
p3930
S'volume'
p3931
tp3932
I1
s(S'return'
p3933
S'be'
p3934
tp3935
I1
s(S'praise'
p3936
g3699
tp3937
I1
s(S'legislators'
p3938
S'work'
p3939
tp3940
I1
s(S'education'
p3941
g2422
tp3942
I1
s(S'pay'
p3943
S'the'
p3944
tp3945
I1
s(g138
S'by'
p3946
tp3947
I1
s(S'government'
p3948
g1567
tp3949
I1
s(g865
S'to'
p3950
tp3951
I1
s(S'would'
p3952
S'run'
p3953
tp3954
I2
s(S'expected'
p3955
g2503
tp3956
I4
s(g1173
S'decided'
p3957
tp3958
I1
s(g2567
S'boost'
p3959
tp3960
I1
s(S'approved'
p3961
S'earlier'
p3962
tp3963
I1
s(S'30'
p3964
S'a'
tp3965
I1
s(S'americans'
p3966
S'over'
p3967
tp3968
I1
s(g2370
S'teachers'
p3969
tp3970
I1
s(g580
g1821
tp3971
I1
s(S'deductible'
p3972
S'requirements'
p3973
tp3974
I1
s(S'then'
p3975
S'marvin'
p3976
tp3977
I1
s(S'years'
p3978
g2478
tp3979
I1
s(S'practices'
p3980
S'in'
p3981
tp3982
I1
s(g2547
S'of'
p3983
tp3984
I1
s(g3238
g1923
tp3985
I1
s(S'3'
g1345
tp3986
I1
s(S'finally'
p3987
g1376
tp3988
I1
s(S'warned'
p3989
S'that'
p3990
tp3991
I1
s(S'extension'
p3992
S'other'
p3993
tp3994
I1
s(S'the'
p3995
g1501
tp3996
I1
s(g2980
S'bellows'
p3997
tp3998
I1
s(S'cheshire'
p3999
g1720
tp4000
I1
s(S'aid'
p4001
S'to'
p4002
tp4003
I2
s(g1780
S'department'
p4004
tp4005
I1
s(S'for'
p4006
g286
tp4007
I1
s(g2084
S'austin'
p4008
tp4009
I1
s(S'2'
S'1913'
p4010
tp4011
I1
s(S'wards'
p4012
S'protected'
p4013
tp4014
I1
s(S'1962'
p4015
g1438
tp4016
I1
s(S'minute'
p4017
g306
tp4018
I1
s(S'yearly'
p4019
S'after'
p4020
tp4021
I1
s(g1328
S'his'
p4022
tp4023
I1
s(S'residential'
p4024
g1841
tp4025
I1
s(g3756
S'will'
p4026
tp4027
I1
s(S'candidate'
p4028
g3769
tp4029
I1
s(S'representing'
p4030
g838
tp4031
I2
s(S"caldwell's"
p4032
g2411
tp4033
I1
s(S'state'
p4034
g2114
tp4035
I1
s(S'improving'
p4036
g464
tp4037
I1
s(S'these'
p4038
g1941
tp4039
I1
s(S'in'
p4040
S'fulton'
p4041
tp4042
I1
s(g2861
S'of'
p4043
tp4044
I1
s(g3684
S'attorneys'
p4045
tp4046
I1
s(S'and'
p4047
S'the'
p4048
tp4049
I7
s(S'make'
p4050
S'to'
p4051
tp4052
I1
s(S'upon'
p4053
S'adc'
p4054
tp4055
I1
s(S'be'
p4056
S'worked'
p4057
tp4058
I1
s(S'citizens'
p4059
S'feared'
p4060
tp4061
I1
s(S'to'
p4062
g267
tp4063
I1
s(S'rob'
p4064
g2679
tp4065
I1
s(S'distribution'
p4066
g882
tp4067
I1
s(S'well'
p4068
S'operated'
p4069
tp4070
I1
s(S'up'
p4071
S'for'
p4072
tp4073
I1
s(g811
g819
tp4074
I1
s(S'hospital'
p4075
S'board'
p4076
tp4077
I1
s(S'1119'
p4078
S'votes'
p4079
tp4080
I1
s(g3746
S'from'
p4081
tp4082
I1
s(S'court'
p4083
S'judge'
p4084
tp4085
I1
s(g3514
g485
tp4086
I1
s(S'stocks'
p4087
S'and'
p4088
tp4089
I2
s(S'the'
p4090
S'third'
p4091
tp4092
I1
s(g2675
g967
tp4093
I1
s(S'meet'
p4094
g1278
tp4095
I1
s(S'million'
p4096
S'highway'
p4097
tp4098
I1
s(S'which'
p4099
S'receives'
p4100
tp4101
I1
s(g3459
S'be'
p4102
tp4103
I2
s(S'plan'
p4104
S'similar'
p4105
tp4106
I1
s(g2859
S'hays'
p4107
tp4108
I1
s(S'a'
S'gun'
p4109
tp4110
I1
s(S'and'
p4111
S'wife'
p4112
tp4113
I1
s(S'and'
p4114
S'elected'
p4115
tp4116
I1
s(g586
g80
tp4117
I1
s(S'highway'
p4118
S'commission'
p4119
tp4120
I1
s(g2129
S'rules'
p4121
tp4122
I1
s(g1777
S'in'
p4123
tp4124
I1
s(S'fair'
p4125
S'trial'
p4126
tp4127
I2
s(S'city'
p4128
S'executive'
p4129
tp4130
I1
s(S'year'
p4131
S'and'
p4132
tp4133
I2
s(g4107
S'state'
p4134
tp4135
I1
s(g1530
S'go'
p4136
tp4137
I2
s(S'granted'
p4138
S'for'
p4139
tp4140
I1
s(S'protests'
p4141
S'of'
p4142
tp4143
I1
s(g3199
S'force'
p4144
tp4145
I3
s(S'reduce'
p4146
g3010
tp4147
I2
s(S'federal'
p4148
S'scholarships'
p4149
tp4150
I1
s(g3636
S'a'
tp4151
I2
s(g1078
S'aside'
p4152
tp4153
I1
s(S'clark'
p4154
S'has'
p4155
tp4156
I2
s(g420
S'expense'
p4157
tp4158
I1
s(g1325
S'is'
p4159
tp4160
I1
s(S'dallas'
p4161
S'may'
p4162
tp4163
I1
s(S'a'
g2932
tp4164
I3
s(S'action'
p4165
g3403
tp4166
I1
s(S'take'
p4167
S'steps'
p4168
tp4169
I1
s(S'of'
p4170
S'wayne'
p4171
tp4172
I1
s(S'costs'
p4173
g2877
tp4174
I1
s(S'if'
p4175
S'people'
p4176
tp4177
I1
s(g1423
S'a'
tp4178
I2
s(S'in'
p4179
g3176
tp4180
I3
s(g2364
g1453
tp4181
I1
s(S'are'
p4182
g2956
tp4183
I1
s(S'of'
p4184
S'registered'
p4185
tp4186
I1
s(S'strongly'
p4187
S'indicated'
p4188
tp4189
I1
s(g4020
S'the'
p4190
tp4191
I2
s(S'history'
p4192
S'in'
p4193
tp4194
I1
s(g3086
S'former'
p4195
tp4196
I1
s(S'to'
p4197
S'compulsory'
p4198
tp4199
I1
s(S'was'
p4200
S'picking'
p4201
tp4202
I1
s(S'tied'
p4203
S'in'
p4204
tp4205
I1
s(S'initial'
p4206
S'appropriation'
p4207
tp4208
I1
s(S'unit'
p4209
S'system'
p4210
tp4211
I1
s(S'reservoirs'
p4212
S'for'
p4213
tp4214
I1
s(S'school'
p4215
S'districts'
p4216
tp4217
I1
s(S'unspecified'
p4218
S'sum'
p4219
tp4220
I1
s(S'were'
p4221
g3888
tp4222
I1
s(S'obtained'
p4223
g705
tp4224
I1
s(S'or'
p4225
S'2'
tp4226
I1
s(S'judges'
p4227
S'in'
p4228
tp4229
I4
s(g144
S'big'
p4230
tp4231
I1
s(S'anticipated'
p4232
S'deficit'
p4233
tp4234
I1
s(S'gop'
p4235
g640
tp4236
I1
s(g4159
S'already'
p4237
tp4238
I1
s(S'13'
p4239
S'primary'
p4240
tp4241
I1
s(S'was'
p4242
S'adopted'
p4243
tp4244
I1
s(g1191
S'funds'
p4245
tp4246
I1
s(g1618
S'that'
p4247
tp4248
I3
s(S'care'
p4249
S'at'
p4250
tp4251
I1
s(S'wednesday'
p4252
g173
tp4253
I1
s(S'for'
p4254
g2934
tp4255
I1
s(S'took'
p4256
S'a'
tp4257
I1
s(S'plan'
p4258
S'does'
p4259
tp4260
I1
s(g3652
S'last'
p4261
tp4262
I2
s(g3076
S'totaling'
p4263
tp4264
I1
s(S'causes'
p4265
S'and'
p4266
tp4267
I1
s(S'to'
p4268
S'give'
p4269
tp4270
I3
s(S'would'
p4271
g1476
tp4272
I1
s(g3784
S'that'
p4273
tp4274
I1
s(g2008
g1097
tp4275
I2
s(S'provide'
p4276
S'federal'
p4277
tp4278
I1
s(S'williams'
p4279
S'said'
p4280
tp4281
I2
s(g1756
g3480
tp4282
I3
s(g1092
g4053
tp4283
I1
s(S'that'
p4284
S'1'
tp4285
I1
s(S'his'
p4286
S'client'
p4287
tp4288
I1
s(S'and'
p4289
S'howard'
p4290
tp4291
I1
s(S'offices'
p4292
S'should'
p4293
tp4294
I1
s(S'contempt'
p4295
S'proceedings'
p4296
tp4297
I1
s(g2960
S'day'
p4298
tp4299
I3
s(S'the'
p4300
g2384
tp4301
I1
s(g2019
S'he'
p4302
tp4303
I1
s(S'all'
p4304
S'costs'
p4305
tp4306
I1
s(S'underground'
p4307
S'storage'
p4308
tp4309
I1
s(g3781
S'the'
p4310
tp4311
I1
s(S'printed'
p4312
S'on'
p4313
tp4314
I1
s(g2605
S'former'
p4315
tp4316
I1
s(S'still'
p4317
S'had'
p4318
tp4319
I1
s(S'worth'
p4320
S'can'
p4321
tp4322
I1
s(S'involving'
p4323
S'35'
p4324
tp4325
I1
s(g114
g975
tp4326
I1
s(S'intelligent'
p4327
S'choice'
p4328
tp4329
I1
s(S'source'
p4330
S'said'
p4331
tp4332
I1
s(S'director'
p4333
S'at'
p4334
tp4335
I1
s(S'make'
p4336
S'a'
tp4337
I1
s(S'program'
p4338
S'a'
tp4339
I1
s(S'resigned'
p4340
g509
tp4341
I1
s(S'other'
p4342
g3774
tp4343
I1
s(S'17000'
p4344
g2197
tp4345
I1
s(g3102
S'lived'
p4346
tp4347
I1
s(g1445
S'principals'
p4348
tp4349
I1
s(g753
S'the'
p4350
tp4351
I1
s(S'be'
p4352
S'made'
p4353
tp4354
I1
s(S'austin'
p4355
g327
tp4356
I1
s(S'who'
p4357
S'charged'
p4358
tp4359
I1
s(S'the'
p4360
S'measure'
p4361
tp4362
I2
s(S'the'
p4363
S'drain'
p4364
tp4365
I1
s(g962
g632
tp4366
I1
s(S'companies'
p4367
S'would'
p4368
tp4369
I1
s(S'de'
p4370
S'la'
p4371
tp4372
I1
s(S'his'
p4373
S'aged'
p4374
tp4375
I1
s(g2662
S'funds'
p4376
tp4377
I1
s(g2593
g2050
tp4378
I1
s(S'cost'
p4379
S'up'
p4380
tp4381
I1
s(S'services'
p4382
S'in'
p4383
tp4384
I1
s(g3442
S'career'
p4385
tp4386
I1
s(g661
g3368
tp4387
I1
s(S'of'
p4388
S'even'
p4389
tp4390
I1
s(S'which'
p4391
S'he'
p4392
tp4393
I1
s(S'and'
p4394
S'expended'
p4395
tp4396
I1
s(S'retirement'
p4397
S'system'
p4398
tp4399
I1
s(S'deaf'
p4400
S'here'
p4401
tp4402
I1
s(S'from'
p4403
g474
tp4404
I1
s(S'upon'
p4405
g128
tp4406
I2
s(g1510
S'a'
tp4407
I1
s(g2966
S'and'
p4408
tp4409
I1
s(g2847
S'scholarships'
p4410
tp4411
I1
s(S'help'
p4412
g702
tp4413
I1
s(S'county'
p4414
g4099
tp4415
I1
s(g2685
S'used'
p4416
tp4417
I1
s(S'and'
p4418
S'wording'
p4419
tp4420
I1
s(S'at'
p4421
S'least'
p4422
tp4423
I2
s(S'in'
p4424
S'funds'
p4425
tp4426
I1
s(S'said'
p4427
g2329
tp4428
I7
s(S'in'
p4429
S'addition'
p4430
tp4431
I2
s(S'size'
p4432
g1758
tp4433
I1
s(S'legislative'
p4434
S'approval'
p4435
tp4436
I1
s(S'first'
p4437
g2572
tp4438
I1
s(S'of'
p4439
S'modernizing'
p4440
tp4441
I1
s(S'senate'
p4442
S'is'
p4443
tp4444
I1
s(S'jury'
p4445
g4256
tp4446
I1
s(S'message'
p4447
S'senate'
p4448
tp4449
I1
s(g1343
S'extension'
p4450
tp4451
I1
s(g2938
S'information'
p4452
tp4453
I1
s(S'doctor'
p4454
g1889
tp4455
I1
s(g3413
g3023
tp4456
I1
s(S'gas'
p4457
S'public'
p4458
tp4459
I1
s(S'help'
p4460
g2895
tp4461
I1
s(S'orderly'
p4462
S'election'
p4463
tp4464
I1
s(S'he'
p4465
g2236
tp4466
I1
s(S'a'
g2557
tp4467
I1
s(g2680
S'gainesville'
p4468
tp4469
I1
s(S'political'
p4470
S'career'
p4471
tp4472
I2
s(S'there'
p4473
S'will'
p4474
tp4475
I1
s(S'superintendent'
p4476
S'george'
p4477
tp4478
I1
s(g2485
g2469
tp4479
I1
s(S'scholastics'
p4480
S'to'
p4481
tp4482
I1
s(g3158
S'director'
p4483
tp4484
I1
s(g2423
S'establish'
p4485
tp4486
I1
s(g528
S'said'
p4487
tp4488
I1
s(g982
S'including'
p4489
tp4490
I1
s(g3597
S'or'
p4491
tp4492
I1
s(S'and'
p4493
g4146
tp4494
I1
s(g1148
S'he'
p4495
tp4496
I1
s(S'rise'
p4497
g672
tp4498
I1
s(S'take'
p4499
S'out'
p4500
tp4501
I1
s(g1313
g2248
tp4502
I1
s(S'said'
p4503
S'karns'
p4504
tp4505
I1
s(S'requirement'
p4506
g1935
tp4507
I1
s(S'plan'
p4508
S'to'
p4509
tp4510
I1
s(g3997
S'what'
p4511
tp4512
I1
s(g1911
g3558
tp4513
I1
s(g3883
S'only'
p4514
tp4515
I1
s(S'expires'
p4516
S'1'
tp4517
I1
s(S'with'
p4518
S'depositors'
p4519
tp4520
I1
s(S'text'
p4521
g4317
tp4522
I1
s(S'eminent'
p4523
S'domain'
p4524
tp4525
I1
s(g1162
S'to'
p4526
tp4527
I1
s(S'july'
p4528
g1231
tp4529
I1
s(S'senators'
p4530
S'were'
p4531
tp4532
I1
s(g331
S'the'
p4533
tp4534
I1
s(S'would'
p4535
S'authorize'
p4536
tp4537
I1
s(S'defendants'
p4538
S'made'
p4539
tp4540
I2
s(S'the'
p4541
S'major'
p4542
tp4543
I1
s(S'the'
p4544
S'mentally'
p4545
tp4546
I1
s(S'receive'
p4547
S'final'
p4548
tp4549
I1
s(S'court'
p4550
g3038
tp4551
I1
s(S'51'
p4552
S'million'
p4553
tp4554
I1
s(S'surveillance'
p4555
S'of'
p4556
tp4557
I1
s(g1384
g4333
tp4558
I1
s(S'240'
p4559
S'days'
p4560
tp4561
I1
s(S'was'
p4562
S'told'
p4563
tp4564
I1
s(S'to'
p4565
g1971
tp4566
I1
s(S'ratcliff'
p4567
S'while'
p4568
tp4569
I1
s(S'has'
p4570
S'taken'
p4571
tp4572
I1
s(S'similar'
p4573
S'payroll'
p4574
tp4575
I1
s(S'age'
p4576
S'as'
p4577
tp4578
I2
s(g4084
S'durwood'
p4579
tp4580
I1
s(S'charles'
p4581
g1717
tp4582
I1
s(S'was'
p4583
S'one'
p4584
tp4585
I1
s(g694
g1708
tp4586
I1
s(S'in'
p4587
g3324
tp4588
I1
s(S'less'
p4589
S'populous'
p4590
tp4591
I2
s(S'million'
p4592
S'dollar'
p4593
tp4594
I3
s(g3301
S'got'
p4595
tp4596
I1
s(S'both'
p4597
g2122
tp4598
I1
s(g3322
S'practices'
p4599
tp4600
I1
s(S'campaign'
p4601
S'starts'
p4602
tp4603
I1
s(S'could'
p4604
g4050
tp4605
I1
s(S'career'
p4606
S'on'
p4607
tp4608
I1
s(S'defendants'
p4609
S'in'
p4610
tp4611
I1
s(g2252
S'votes'
p4612
tp4613
I1
s(g2450
S'remainder'
p4614
tp4615
I1
s(S'student'
p4616
g2700
tp4617
I1
s(S'to'
p4618
S'take'
p4619
tp4620
I3
s(S'was'
p4621
S'research'
p4622
tp4623
I1
s(S'effective'
p4624
g3826
tp4625
I1
s(S'a'
S'group'
p4626
tp4627
I1
s(g4247
g1241
tp4628
I3
s(g2117
S'number'
p4629
tp4630
I2
s(S'dental'
p4631
S'school'
p4632
tp4633
I1
s(g4425
g3538
tp4634
I1
s(S'bill'
p4635
g2372
tp4636
I1
s(g589
S'prejudicial'
p4637
tp4638
I1
s(g3248
S'had'
p4639
tp4640
I1
s(g2154
S'deputies'
p4641
tp4642
I1
s(S'that'
p4643
S'the'
p4644
tp4645
I11
s(S'candidate'
p4646
S'for'
p4647
tp4648
I1
s(g1400
g2811
tp4649
I1
s(S'being'
p4650
S'at'
p4651
tp4652
I2
s(S'corps'
p4653
S'of'
p4654
tp4655
I1
s(S'airport'
p4656
S'the'
p4657
tp4658
I1
s(S'legislators'
p4659
S'allotted'
p4660
tp4661
I1
s(S'room'
p4662
S'he'
p4663
tp4664
I1
s(S'of'
p4665
g2974
tp4666
I1
s(S'that'
p4667
S'he'
p4668
tp4669
I3
s(S'he'
p4670
S'added'
p4671
tp4672
I1
s(S'and'
p4673
S'some'
p4674
tp4675
I1
s(S'morse'
p4676
S'in'
p4677
tp4678
I1
s(g1392
S'sufficient'
p4679
tp4680
I1
s(g3018
g3412
tp4681
I1
s(S'degree'
p4682
S'from'
p4683
tp4684
I3
s(S'texas'
p4685
S'senators'
p4686
tp4687
I1
s(S'would'
p4688
g3300
tp4689
I1
s(S'plan'
p4690
g2466
tp4691
I1
s(g4408
g3638
tp4692
I1
s(g3502
S'were'
p4693
tp4694
I1
s(g3168
S'spent'
p4695
tp4696
I1
s(S'recommend'
p4697
S'later'
p4698
tp4699
I1
s(g2209
S'except'
p4700
tp4701
I1
s(S'vandiver'
p4702
S'is'
p4703
tp4704
I1
s(S'hartsfield'
p4705
g4040
tp4706
I1
s(S'these'
p4707
g2352
tp4708
I1
s(S'after'
p4709
S'a'
tp4710
I1
s(S'race'
p4711
S'one'
p4712
tp4713
I1
s(g2504
S'a'
tp4714
I1
s(g621
g3371
tp4715
I1
s(g2558
S'suit'
p4716
tp4717
I1
s(S'congress'
p4718
S'eliminating'
p4719
tp4720
I1
s(g688
S'man'
p4721
tp4722
I1
s(S'questions'
p4723
S'with'
p4724
tp4725
I1
s(S'outgoing'
p4726
g182
tp4727
I1
s(S'by'
p4728
g3628
tp4729
I1
s(S'to'
p4730
g330
tp4731
I1
s(S'to'
p4732
S'21'
p4733
tp4734
I1
s(g706
S'unfair'
p4735
tp4736
I1
s(S'in'
p4737
S'violation'
p4738
tp4739
I1
s(S'hospital'
p4740
S'a'
tp4741
I1
s(S'will'
p4742
S'wind'
p4743
tp4744
I1
s(g1110
S'big'
p4745
tp4746
I1
s(S'address'
p4747
S'involved'
p4748
tp4749
I1
s(S'budget'
p4750
S'for'
p4751
tp4752
I2
s(S'election'
p4753
S'laws'
p4754
tp4755
I1
s(S'will'
p4756
S'eliminate'
p4757
tp4758
I1
s(S'that'
p4759
g2891
tp4760
I1
s(g2126
S'allwoman'
p4761
tp4762
I1
s(S'one'
p4763
S'of'
p4764
tp4765
I4
s(S'excess'
p4766
g2402
tp4767
I1
s(g3990
S'entering'
p4768
tp4769
I1
s(g2563
S'members'
p4770
tp4771
I1
s(S'paso'
p4772
S'would'
p4773
tp4774
I1
s(S'griffin'
p4775
S'the'
p4776
tp4777
I1
s(g4511
g3352
tp4778
I1
s(S'teaches'
p4779
g4192
tp4780
I1
s(S'undermine'
p4781
S'the'
p4782
tp4783
I1
s(S'texas'
p4784
S'research'
p4785
tp4786
I1
s(S'and'
p4787
S'employer'
p4788
tp4789
I1
s(S'this'
p4790
S'question'
p4791
tp4792
I1
s(g1374
S'million'
p4793
tp4794
I1
s(S'hospitals'
p4795
S'in'
p4796
tp4797
I1
s(S'county'
p4798
S'school'
p4799
tp4800
I2
s(S'presentments'
p4801
g4643
tp4802
I1
s(S'to'
p4803
g3438
tp4804
I1
s(g367
S'dental'
p4805
tp4806
I1
s(S'republicans'
p4807
g2687
tp4808
I1
s(g4622
S'being'
p4809
tp4810
I1
s(S'county'
p4811
S'general'
p4812
tp4813
I1
s(S'approve'
p4814
S'a'
tp4815
I1
s(S'to'
p4816
g858
tp4817
I3
s(g381
S'effect'
p4818
tp4819
I1
s(S'promise'
p4820
S'everything'
p4821
tp4822
I1
s(g1972
S'federal'
p4823
tp4824
I1
s(S'in'
p4825
S'our'
p4826
tp4827
I1
s(S'wexler'
p4828
g2059
tp4829
I1
s(S'reports'
p4830
S'was'
p4831
tp4832
I1
s(S'outright'
p4833
S'or'
p4834
tp4835
I1
s(S'196162'
p4836
S'session'
p4837
tp4838
I1
s(g1436
g1746
tp4839
I1
s(S'said'
p4840
S'chapman'
p4841
tp4842
I1
s(S'acting'
p4843
S'hastily'
p4844
tp4845
I1
s(S'rural'
p4846
g740
tp4847
I4
s(S'million'
p4848
g3966
tp4849
I1
s(S'to'
p4850
S'300'
p4851
tp4852
I1
s(g2333
g4709
tp4853
I1
s(S'a'
g3516
tp4854
I1
s(g1319
g86
tp4855
I1
s(g1513
g3818
tp4856
I1
s(g2786
g1286
tp4857
I1
s(S'propose'
p4858
S'increasing'
p4859
tp4860
I1
s(S'unanimously'
p4861
S'approved'
p4862
tp4863
I1
s(g3976
g4775
tp4864
I1
s(S'who'
p4865
g693
tp4866
I1
s(S'the'
p4867
g4624
tp4868
I1
s(S'of'
p4869
S'circulation'
p4870
tp4871
I1
s(g903
g2128
tp4872
I1
s(g1874
g4161
tp4873
I1
s(S'the'
p4874
g2343
tp4875
I1
s(S'statements'
p4876
S'involving'
p4877
tp4878
I1
s(S'school'
p4879
S'as'
p4880
tp4881
I1
s(S'157460'
p4882
g4019
tp4883
I1
s(S'also'
p4884
g3142
tp4885
I1
s(S'city'
p4886
g1270
tp4887
I1
s(g2495
S'a'
tp4888
I1
s(S'courses'
p4889
g717
tp4890
I1
s(S'year'
p4891
g1657
tp4892
I1
s(S'against'
p4893
S'racial'
p4894
tp4895
I1
s(S'1000'
p4896
S'cost'
p4897
tp4898
I1
s(S'paidfor'
p4899
S'nursing'
p4900
tp4901
I1
s(g4266
g2266
tp4902
I1
s(S'president'
p4903
S'said'
p4904
tp4905
I5
s(g3707
g3835
tp4906
I1
s(S'working'
p4907
S'on'
p4908
tp4909
I1
s(S'for'
p4910
S'constructing'
p4911
tp4912
I1
s(S'in'
p4913
S'such'
p4914
tp4915
I1
s(g4328
S'all'
p4916
tp4917
I1
s(S'miscount'
p4918
S'of'
p4919
tp4920
I1
s(S'november'
p4921
g1641
tp4922
I1
s(S'an'
p4923
S'instructor'
p4924
tp4925
I1
s(g4440
S'and'
p4926
tp4927
I1
s(S'hospitalcare'
p4928
S'credit'
p4929
tp4930
I1
s(S'under'
p4931
S'which'
p4932
tp4933
I1
s(S'charged'
p4934
S'mental'
p4935
tp4936
I1
s(S'11'
p4937
g4530
tp4938
I1
s(S'election'
p4939
S'i'
tp4940
I2
s(S'vindication'
p4941
S'of'
p4942
tp4943
I1
s(g3921
S'in'
p4944
tp4945
I1
s(g364
g3105
tp4946
I2
s(S'parsons'
p4947
g4562
tp4948
I1
s(S'learning'
p4949
S'educational'
p4950
tp4951
I1
s(S'rather'
p4952
S'than'
p4953
tp4954
I1
s(g3793
g3257
tp4955
I1
s(S'cabinet'
p4956
S'selections'
p4957
tp4958
I1
s(S'patient'
p4959
S'4'
tp4960
I1
s(S'the'
p4961
g1788
tp4962
I1
s(S'courses'
p4963
S'fiftythree'
p4964
tp4965
I1
s(S'the'
p4966
S'base'
p4967
tp4968
I1
s(S'house'
p4969
S'aids'
p4970
tp4971
I1
s(S'marked'
p4972
S'by'
p4973
tp4974
I1
s(S'committee'
p4975
S'approval'
p4976
tp4977
I1
s(g3613
S'an'
p4978
tp4979
I1
s(S'days'
p4980
S'following'
p4981
tp4982
I1
s(g4500
g4869
tp4983
I4
s(S'jury'
p4984
g4662
tp4985
I1
s(g2725
g3890
tp4986
I1
s(S'to'
p4987
g3567
tp4988
I1
s(g3821
g2230
tp4989
I1
s(S'services'
p4990
S'facilities'
p4991
tp4992
I1
s(S'indicating'
p4993
g131
tp4994
I1
s(S'these'
p4995
g2972
tp4996
I1
s(g3410
S'of'
p4997
tp4998
I1
s(S'unit'
p4999
S'formula'
p5000
tp5001
I1
s(S'be'
p5002
S'selected'
p5003
tp5004
I1
s(S'in'
p5005
S'banks'
p5006
tp5007
I1
s(S'of'
p5008
S'such'
p5009
tp5010
I2
s(S'professor'
p5011
S'of'
p5012
tp5013
I1
s(S'that'
p5014
g1627
tp5015
I1
s(g3377
g1672
tp5016
I1
s(g1368
S'education'
p5017
tp5018
I4
s(g2522
g3130
tp5019
I1
s(S'the'
p5020
g1039
tp5021
I2
s(S'a'
S'primary'
p5022
tp5023
I1
s(S'benefits'
p5024
S'paid'
p5025
tp5026
I1
s(S'a'
S'number'
p5027
tp5028
I2
s(g2721
S'grants'
p5029
tp5030
I1
s(S'scholarships'
p5031
S'build'
p5032
tp5033
I1
s(S'evidence'
p5034
S'was'
p5035
tp5036
I1
s(S'a'
g585
tp5037
I3
s(S'outpatient'
p5038
S'clinic'
p5039
tp5040
I1
s(g3675
S'last'
p5041
tp5042
I1
s(g1034
S'and'
p5043
tp5044
I2
s(S'teacher'
p5045
g2703
tp5046
I1
s(g4168
g1963
tp5047
I1
s(g2398
g2358
tp5048
I1
s(S'toward'
p5049
g955
tp5050
I1
s(S'clements'
p5051
g3964
tp5052
I1
s(g4395
g1190
tp5053
I1
s(S'association'
p5054
g51
tp5055
I1
s(g3492
g4215
tp5056
I1
s(S'proposals'
p5057
g1556
tp5058
I1
s(g3808
S'some'
p5059
tp5060
I1
s(g447
S'the'
p5061
tp5062
I3
s(S'the'
p5063
S'defendants'
p5064
tp5065
I4
s(S'6'
S'per'
p5066
tp5067
I1
s(S'resolution'
p5068
S'being'
p5069
tp5070
I1
s(g759
S'enforcing'
p5071
tp5072
I1
s(S'served'
p5073
S'as'
p5074
tp5075
I2
s(S'the'
p5076
S'present'
p5077
tp5078
I2
s(S'master'
p5079
g3802
tp5080
I1
s(S'was'
p5081
g4972
tp5082
I1
s(S'be'
p5083
g2379
tp5084
I1
s(S'attorney'
p5085
S'general'
p5086
tp5087
I1
s(S'he'
p5088
g2150
tp5089
I1
s(g2540
S'on'
p5090
tp5091
I1
s(g3291
S'bellows'
p5092
tp5093
I1
s(g1783
S'privilege'
p5094
tp5095
I1
s(S'be'
p5096
S'sought'
p5097
tp5098
I2
s(S'he'
p5099
S'thinks'
p5100
tp5101
I1
s(S'hospital'
p5102
S'bills'
p5103
tp5104
I1
s(S'penalty'
p5105
S'of'
p5106
tp5107
I1
s(g392
S'date'
p5108
tp5109
I1
s(S'a'
S'state'
p5110
tp5111
I2
s(g3891
g4913
tp5112
I1
s(g543
S'the'
p5113
tp5114
I1
s(S'jail'
p5115
S'and'
p5116
tp5117
I1
s(S'servants'
p5118
S'from'
p5119
tp5120
I1
s(S'a'
g5105
tp5121
I1
s(S'100'
p5122
g4096
tp5123
I1
s(S'dollars'
p5124
S'the'
p5125
tp5126
I1
s(S'several'
p5127
S'more'
p5128
tp5129
I1
s(g2187
S'is'
p5130
tp5131
I1
s(g4487
S'are'
p5132
tp5133
I2
s(S'load'
p5134
S'the'
p5135
tp5136
I1
s(S'wexler'
p5137
S'has'
p5138
tp5139
I1
s(S'argued'
p5140
g3589
tp5141
I1
s(S'would'
p5142
S'dismiss'
p5143
tp5144
I1
s(S'project'
p5145
S'cotten'
p5146
tp5147
I1
s(S'these'
p5148
S'available'
p5149
tp5150
I1
s(S'five'
p5151
S'counties'
p5152
tp5153
I1
s(S'harlingen'
p5154
g4289
tp5155
I1
s(g1522
g873
tp5156
I2
s(S'before'
p5157
g2242
tp5158
I1
s(S'natural'
p5159
g4457
tp5160
I1
s(S'his'
p5161
S'race'
p5162
tp5163
I1
s(S'welfare'
p5164
g663
tp5165
I1
s(g2079
S'a'
tp5166
I1
s(g3117
g4394
tp5167
I1
s(S'methods'
p5168
g388
tp5169
I1
s(S'of'
p5170
S'family'
p5171
tp5172
I1
s(S'and'
p5173
g161
tp5174
I1
s(g78
g3498
tp5175
I2
s(S'an'
p5176
S'adverse'
p5177
tp5178
I1
s(g1854
S'a'
tp5179
I1
s(g2237
S'grants'
p5180
tp5181
I1
s(S'said'
p5182
g3586
tp5183
I1
s(g2249
S'to'
p5184
tp5185
I1
s(S'the'
p5186
S'aged'
p5187
tp5188
I3
s(g4157
g2375
tp5189
I1
s(g3174
S'teaching'
p5190
tp5191
I1
s(S'the'
p5192
S'right'
p5193
tp5194
I1
s(S'extended'
p5195
S'hospital'
p5196
tp5197
I1
s(S'the'
p5198
S'courtroom'
p5199
tp5200
I1
s(S'week'
p5201
S'to'
p5202
tp5203
I1
s(g2246
S'1937'
p5204
tp5205
I1
s(S'let'
p5206
g2694
tp5207
I1
s(S'research'
p5208
S'funds'
p5209
tp5210
I1
s(S'chief'
p5211
g629
tp5212
I1
s(S'resolution'
p5213
S'the'
p5214
tp5215
I1
s(S'the'
p5216
S'needs'
p5217
tp5218
I1
s(S'political'
p5219
S'influences'
p5220
tp5221
I1
s(S'compensation'
p5222
g4012
tp5223
I1
s(S'were'
p5224
S'under'
p5225
tp5226
I1
s(S'controversy'
p5227
g280
tp5228
I1
s(S'the'
p5229
S'authority'
p5230
tp5231
I1
s(g630
S'to'
p5232
tp5233
I1
s(S'senate'
p5234
S'a'
tp5235
I1
s(g3398
S'to'
p5236
tp5237
I1
s(S'counties'
p5238
g2029
tp5239
I1
s(S'report'
p5240
S'such'
p5241
tp5242
I1
s(S'is'
p5243
g3955
tp5244
I4
s(S'city'
p5245
g2431
tp5246
I1
s(g4269
g2023
tp5247
I1
s(S'schools'
p5248
S'in'
p5249
tp5250
I2
s(g2063
S'pearl'
p5251
tp5252
I1
s(g1154
g309
tp5253
I1
s(S'lawyer'
p5254
g4030
tp5255
I1
s(S'the'
p5256
S'escheat'
p5257
tp5258
I2
s(S'dental'
p5259
g5031
tp5260
I1
s(S'voters'
p5261
S'despite'
p5262
tp5263
I1
s(g1945
g1036
tp5264
I1
s(S'bill'
p5265
S'is'
p5266
tp5267
I2
s(g1630
S'between'
p5268
tp5269
I1
s(S'and'
p5270
S'adc'
p5271
tp5272
I1
s(g1871
S'authorizing'
p5273
tp5274
I1
s(g2975
S'health'
p5275
tp5276
I1
s(S'research'
p5277
S'projects'
p5278
tp5279
I1
s(S'means'
p5280
S'to'
p5281
tp5282
I1
s(g4870
g1535
tp5283
I1
s(S'that'
p5284
g1651
tp5285
I1
s(g150
g4730
tp5286
I1
s(S'elaborate'
p5287
S'but'
p5288
tp5289
I1
s(S'in'
p5290
S'blue'
p5291
tp5292
I1
s(S'many'
p5293
S'local'
p5294
tp5295
I1
s(g492
g2843
tp5296
I1
s(g909
S'obligations'
p5297
tp5298
I1
s(g2184
g3032
tp5299
I1
s(S'enthusiasm'
p5300
g4200
tp5301
I1
s(S'state'
p5302
g4075
tp5303
I1
s(S'those'
p5304
g4865
tp5305
I2
s(S'a'
S'law'
p5306
tp5307
I2
s(g4069
S'and'
p5308
tp5309
I1
s(g3110
S'night'
p5310
tp5311
I1
s(g4004
g3691
tp5312
I1
s(g575
g3980
tp5313
I1
s(S'details'
p5314
g911
tp5315
I1
s(g2731
g1441
tp5316
I1
s(S'investigate'
p5317
g371
tp5318
I1
s(S'house'
p5319
S'passed'
p5320
tp5321
I1
s(S'employment'
p5322
S'one'
p5323
tp5324
I1
s(S'district'
p5325
S'for'
p5326
tp5327
I1
s(g1822
S'of'
p5328
tp5329
I1
s(g4483
g3146
tp5330
I1
s(g1287
S'it'
p5331
tp5332
I1
s(S'staff'
p5333
g3633
tp5334
I1
s(g3714
S'vandiver'
p5335
tp5336
I1
s(S'to'
p5337
S'another'
p5338
tp5339
I1
s(g567
S'37'
p5340
tp5341
I1
s(S'security'
p5342
S'costs'
p5343
tp5344
I1
s(S'senate'
p5345
g1512
tp5346
I1
s(S'airport'
p5347
g1663
tp5348
I1
s(S'been'
p5349
g1011
tp5350
I1
s(g2596
S'guaranteed'
p5351
tp5352
I1
s(g4967
g813
tp5353
I1
s(S'long'
p5354
S'study'
p5355
tp5356
I1
s(S'top'
p5357
S'official'
p5358
tp5359
I1
s(S'had'
p5360
S'been'
p5361
tp5362
I7
s(g1886
S'and'
p5363
tp5364
I1
s(S'lacking'
p5365
g893
tp5366
I1
s(g1543
S'in'
p5367
tp5368
I1
s(S'be'
p5369
S'182'
p5370
tp5371
I1
s(S'the'
p5372
g2223
tp5373
I1
s(S'bill'
p5374
g1947
tp5375
I1
s(g4548
g4434
tp5376
I1
s(S'the'
p5377
S'subject'
p5378
tp5379
I1
s(S'martin'
p5380
S'said'
p5381
tp5382
I1
s(S'legislature'
p5383
g4742
tp5384
I1
s(g236
g2369
tp5385
I1
s(g2432
S'pass'
p5386
tp5387
I1
s(g3353
g3240
tp5388
I1
s(S'opelika'
p5389
S'the'
p5390
tp5391
I1
s(S'constituted'
p5392
S'a'
tp5393
I2
s(g93
g4090
tp5394
I1
s(g4953
S'last'
p5395
tp5396
I1
s(S'of'
p5397
S'up'
p5398
tp5399
I1
s(S'while'
p5400
S'emphasizing'
p5401
tp5402
I1
s(S'revenue'
p5403
g1806
tp5404
I1
s(S'none'
p5405
S'of'
p5406
tp5407
I2
s(g1037
S'to'
p5408
tp5409
I1
s(g2163
S'10'
p5410
tp5411
I1
s(S'year'
p5412
S'opposed'
p5413
tp5414
I1
s(S'196162'
p5415
S'budget'
p5416
tp5417
I1
s(S'research'
p5418
S'he'
p5419
tp5420
I1
s(S'dollars'
p5421
S'at'
p5422
tp5423
I1
s(g5320
g3987
tp5424
I1
s(S'as'
p5425
g566
tp5426
I1
s(S'congressional'
p5427
g363
tp5428
I1
s(g3944
S'hospital'
p5429
tp5430
I1
s(S'to'
p5431
S'back'
p5432
tp5433
I1
s(S'homes'
p5434
g4465
tp5435
I1
s(S'home'
p5436
g1493
tp5437
I1
s(g655
S'advocacy'
p5438
tp5439
I1
s(g168
S'are'
p5440
tp5441
I1
s(g3790
g155
tp5442
I1
s(S'and'
p5443
S'chairman'
p5444
tp5445
I1
s(S'doubling'
p5446
S'the'
p5447
tp5448
I1
s(g2151
S'subjected'
p5449
tp5450
I1
s(S'4th'
p5451
g557
tp5452
I1
s(g3026
S'was'
p5453
tp5454
I1
s(S'largest'
p5455
S'counties'
p5456
tp5457
I1
s(S'receive'
p5458
g4249
tp5459
I1
s(g2426
g3269
tp5460
I1
s(S'from'
p5461
S'hyannis'
p5462
tp5463
I1
s(g965
S'year'
p5464
tp5465
I6
s(g5351
g3562
tp5466
I1
s(g3765
S'bonds'
p5467
tp5468
I1
s(S'knowledge'
p5469
g4990
tp5470
I1
s(g1004
S'security'
p5471
tp5472
I7
s(S'a'
S'conflict'
p5473
tp5474
I1
s(S'election'
p5475
S'to'
p5476
tp5477
I1
s(S'places'
p5478
S'like'
p5479
tp5480
I1
s(S'county'
p5481
S'hospital'
p5482
tp5483
I1
s(g3241
S'true'
p5484
tp5485
I1
s(g4679
g3972
tp5486
I1
s(g1429
S'took'
p5487
tp5488
I1
s(g4626
g1258
tp5489
I1
s(S'reset'
p5490
g4867
tp5491
I1
s(g3934
S'notarized'
p5492
tp5493
I1
s(S'worked'
p5494
g2825
tp5495
I2
s(S'and'
p5496
S'president'
p5497
tp5498
I1
s(S'hours'
p5499
g3173
tp5500
I1
s(S'passed'
p5501
S'by'
p5502
tp5503
I1
s(g171
g2095
tp5504
I1
s(S'urban'
p5505
S'areas'
p5506
tp5507
I1
s(S'are'
p5508
S'reported'
p5509
tp5510
I1
s(S'bills'
p5511
g1402
tp5512
I1
s(g756
S'the'
p5513
tp5514
I1
s(S'the'
p5515
S'houston'
p5516
tp5517
I1
s(S'said'
p5518
g1016
tp5519
I1
s(g3833
S'unity'
p5520
tp5521
I1
s(g4602
S'caldwell'
p5522
tp5523
I1
s(g4533
S'resolution'
p5524
tp5525
I4
s(S'repealed'
p5526
g4833
tp5527
I1
s(S'problems'
p5528
S'relatively'
p5529
tp5530
I1
s(S'their'
p5531
S'opposition'
p5532
tp5533
I1
s(S'the'
p5534
S'end'
p5535
tp5536
I2
s(S'would'
p5537
g634
tp5538
I3
s(S'fare'
p5539
S'of'
p5540
tp5541
I1
s(S'oklahoma'
p5542
S'and'
p5543
tp5544
I1
s(g941
g1988
tp5545
I1
s(g3195
S'john'
p5546
tp5547
I1
s(S'fulton'
p5548
S'tax'
p5549
tp5550
I1
s(g1744
S'to'
p5551
tp5552
I2
s(S'placing'
p5553
S'agedcare'
p5554
tp5555
I1
s(g560
S'said'
p5556
tp5557
I1
s(g2565
S'in'
p5558
tp5559
I1
s(S'handful'
p5560
g5008
tp5561
I1
s(S'to'
p5562
g1388
tp5563
I1
s(S'allow'
p5564
S'legislators'
p5565
tp5566
I1
s(S'color'
p5567
S'these'
p5568
tp5569
I1
s(S'the'
p5570
g978
tp5571
I1
s(g4102
S'effected'
p5572
tp5573
I1
s(S'money'
p5574
S'for'
p5575
tp5576
I1
s(g4240
S'after'
p5577
tp5578
I1
s(g372
S'possible'
p5579
tp5580
I1
s(g5236
g2959
tp5581
I3
s(S'education'
p5582
g2858
tp5583
I1
s(g132
S'at'
p5584
tp5585
I1
s(g3113
S'high'
p5586
tp5587
I1
s(g1612
g932
tp5588
I1
s(g4545
S'retarded'
p5589
tp5590
I1
s(g4837
S'upon'
p5591
tp5592
I1
s(g441
S'find'
p5593
tp5594
I1
s(g2579
g1905
tp5595
I1
s(S'fire'
p5596
g574
tp5597
I1
s(S'termed'
p5598
g2101
tp5599
I1
s(g3897
S'402'
p5600
tp5601
I1
s(g3519
S'1961'
p5602
tp5603
I1
s(S'secretary'
p5604
S'replied'
p5605
tp5606
I1
s(S'the'
p5607
g452
tp5608
I3
s(g3579
g1030
tp5609
I1
s(S'hard'
p5610
g1462
tp5611
I1
s(g3946
S'other'
p5612
tp5613
I1
s(S'the'
p5614
S'public'
p5615
tp5616
I1
s(g4263
g1688
tp5617
I1
s(g5143
S'them'
p5618
tp5619
I1
s(S'modest'
p5620
S'proposal'
p5621
tp5622
I1
s(S'overall'
p5623
g3751
tp5624
I1
s(S'on'
p5625
S'whether'
p5626
tp5627
I1
s(S'such'
p5628
S'care'
p5629
tp5630
I1
s(S'use'
p5631
g3866
tp5632
I1
s(S'way'
p5633
S'to'
p5634
tp5635
I1
s(S'grants'
p5636
S'for'
p5637
tp5638
I2
s(S'opened'
p5639
g5161
tp5640
I1
s(g2501
g3669
tp5641
I1
s(S'brady'
p5642
S'of'
p5643
tp5644
I1
s(g3444
g4759
tp5645
I2
s(g1842
S'for'
p5646
tp5647
I2
s(g1918
g749
tp5648
I2
s(S'mostly'
p5649
g3275
tp5650
I1
s(g3232
S'he'
p5651
tp5652
I1
s(g20
S'amendment'
p5653
tp5654
I3
s(g897
g455
tp5655
I1
s(S'praised'
p5656
g2965
tp5657
I1
s(S'operating'
p5658
g4750
tp5659
I1
s(g5522
g5243
tp5660
I1
s(S'math'
p5661
g1800
tp5662
I1
s(g1678
S'is'
p5663
tp5664
I1
s(S'on'
p5665
g3228
tp5666
I1
s(S'a'
S'house'
p5667
tp5668
I1
s(S'demands'
p5669
S'and'
p5670
tp5671
I1
s(S'measure'
p5672
S'would'
p5673
tp5674
I1
s(g1979
S'smell'
p5675
tp5676
I1
s(S'keeping'
p5677
S'the'
p5678
tp5679
I1
s(S'can'
p5680
g3330
tp5681
I1
s(S'for'
p5682
S'subsistence'
p5683
tp5684
I1
s(g2315
S'construction'
p5685
tp5686
I1
s(S'plan'
p5687
S'requests'
p5688
tp5689
I1
s(S'his'
p5690
S'own'
p5691
tp5692
I1
s(S'chapman'
p5693
g1910
tp5694
I1
s(S'indispensable'
p5695
S'elements'
p5696
tp5697
I1
s(S'himself'
p5698
S'a'
tp5699
I1
s(S'28th'
p5700
S'precincts'
p5701
tp5702
I1
s(S'a'
g2785
tp5703
I2
s(g5621
S'cut'
p5704
tp5705
I1
s(S'agreed'
p5706
g4405
tp5707
I1
s(g3587
S'new'
p5708
tp5709
I1
s(g1460
S'years'
p5710
tp5711
I2
s(g825
S'1'
tp5712
I1
s(g5241
g3295
tp5713
I2
s(S'first'
p5714
g1496
tp5715
I3
s(S'absent'
p5716
S'austin'
p5717
tp5718
I1
s(g4821
g1838
tp5719
I1
s(g609
S'each'
p5720
tp5721
I3
s(g1028
g1682
tp5722
I1
s(g1098
S'ruled'
p5723
tp5724
I1
s(S'year'
p5725
S'as'
p5726
tp5727
I2
s(g456
S'was'
p5728
tp5729
I3
s(S'does'
p5730
g2349
tp5731
I1
s(S'are'
p5732
g3885
tp5733
I1
s(g1977
g1605
tp5734
I1
s(g5022
S'under'
p5735
tp5736
I1
s(S'with'
p5737
g1515
tp5738
I1
s(S'on'
p5739
S'their'
p5740
tp5741
I1
s(g3709
S'immediately'
p5742
tp5743
I1
s(g5482
g5325
tp5744
I1
s(g5663
S'paying'
p5745
tp5746
I1
s(g3350
S'one'
p5747
tp5748
I1
s(S'insurance'
p5749
S'and'
p5750
tp5751
I1
s(g1930
S'grand'
p5752
tp5753
I1
s(g1165
g5461
tp5754
I1
s(S'serve'
p5755
g294
tp5756
I1
s(S'a'
S'normal'
p5757
tp5758
I1
s(S'associate'
p5759
g5011
tp5760
I1
s(g4430
g4154
tp5761
I1
s(S'awarding'
p5762
g1994
tp5763
I1
s(g3040
S'on'
p5764
tp5765
I1
s(S'to'
p5766
S'1'
tp5767
I1
s(S'members'
p5768
S'voted'
p5769
tp5770
I1
s(S'both'
p5771
S'chambers'
p5772
tp5773
I1
s(S'weekend'
p5774
S'at'
p5775
tp5776
I1
s(S'the'
p5777
S'manner'
p5778
tp5779
I1
s(S'worker'
p5780
g4787
tp5781
I1
s(S'10'
p5782
g158
tp5783
I2
s(S'of'
p5784
S'dumas'
p5785
tp5786
I1
s(S'done'
p5787
g5625
tp5788
I1
s(g4812
S'assistance'
p5789
tp5790
I1
s(g1022
S'judges'
p5791
tp5792
I1
s(S'the'
p5793
S'prosecution'
p5794
tp5795
I1
s(S'state'
p5796
g3069
tp5797
I1
s(S'schooling'
p5798
g1917
tp5799
I1
s(S'business'
p5800
S'to'
p5801
tp5802
I1
s(g3223
g4427
tp5803
I1
s(S'message'
p5804
S'was'
p5805
tp5806
I1
s(S'the'
p5807
S"nation's"
p5808
tp5809
I2
s(S'and'
p5810
g5700
tp5811
I1
s(S'more'
p5812
S'for'
p5813
tp5814
I1
s(S'300000'
p5815
S'or'
p5816
tp5817
I1
s(S'address'
p5818
g4521
tp5819
I1
s(S'junior'
p5820
S'or'
p5821
tp5822
I1
s(S'said'
p5823
g3581
tp5824
I1
s(S'payroll'
p5825
S'tax'
p5826
tp5827
I5
s(g2060
g1021
tp5828
I1
s(S'older'
p5829
S'ones'
p5830
tp5831
I1
s(g2479
S'of'
p5832
tp5833
I1
s(g2690
g3043
tp5834
I1
s(S'are'
p5835
S'nevertheless'
p5836
tp5837
I1
s(S'existing'
p5838
S'ones'
p5839
tp5840
I1
s(S'controversy'
p5841
g2001
tp5842
I1
s(g2277
S'the'
p5843
tp5844
I1
s(g5487
S'place'
p5845
tp5846
I1
s(g5704
S'to'
p5847
tp5848
I1
s(g3046
g1467
tp5849
I1
s(S'leading'
p5850
S'to'
p5851
tp5852
I2
s(g4109
S'and'
p5853
tp5854
I1
s(S'of'
p5855
S'that'
p5856
tp5857
I1
s(S'offered'
p5858
S'there'
p5859
tp5860
I1
s(S'would'
p5861
S'entail'
p5862
tp5863
I1
s(S'was'
p5864
S'married'
p5865
tp5866
I1
s(S'the'
p5867
S'18th'
p5868
tp5869
I1
s(g43
S'need'
p5870
tp5871
I1
s(g2303
S'asking'
p5872
tp5873
I1
s(g1857
g5222
tp5874
I1
s(S'denton'
p5875
S'independent'
p5876
tp5877
I1
s(S'the'
p5878
S'hardfought'
p5879
tp5880
I1
s(g5196
S'stay'
p5881
tp5882
I1
s(S'this'
p5883
S'yes'
p5884
tp5885
I1
s(g5090
S'those'
p5886
tp5887
I1
s(S'chemistry'
p5888
g5661
tp5889
I1
s(g1525
g4429
tp5890
I1
s(S'enforced'
p5891
S'now'
p5892
tp5893
I1
s(g1721
S'attorneys'
p5894
tp5895
I1
s(S'been'
p5896
S'mayor'
p5897
tp5898
I1
s(S'a'
g5357
tp5899
I1
s(S'hurdle'
p5900
S'the'
p5901
tp5902
I1
s(S'later'
p5903
g3978
tp5904
I1
s(g465
S'grand'
p5905
tp5906
I4
s(g2498
S'rights'
p5907
tp5908
I1
s(S'did'
p5909
g3489
tp5910
I1
s(S'a'
S'portion'
p5911
tp5912
I1
s(g3226
S'ward'
p5913
tp5914
I4
s(g2954
S'and'
p5915
tp5916
I1
s(S'said'
p5917
g5088
tp5918
I6
s(g3270
S'if'
p5919
tp5920
I1
s(S'court'
p5921
S'of'
p5922
tp5923
I1
s(g52
S'interim'
p5924
tp5925
I1
s(g5479
S'paradise'
p5926
tp5927
I1
s(S'passed'
p5928
S'a'
tp5929
I2
s(S'of'
p5930
g3125
tp5931
I1
s(g5845
S'the'
p5932
tp5933
I1
s(S'reducing'
p5934
g5020
tp5935
I1
s(g1753
S'of'
p5936
tp5937
I1
s(g472
g4295
tp5938
I1
s(S'they'
p5939
S'have'
p5940
tp5941
I1
s(g23
S'george'
p5942
tp5943
I1
s(g2141
g3936
tp5944
I1
s(S'president'
p5945
S'clark'
p5946
tp5947
I1
s(g2525
g1629
tp5948
I1
s(S'which'
p5949
S'would'
p5950
tp5951
I3
s(g1299
S'also'
p5952
tp5953
I1
s(S'and'
p5954
S'others'
p5955
tp5956
I1
s(g2376
S'said'
p5957
tp5958
I2
s(g3316
g3767
tp5959
I1
s(S'soon'
p5960
g675
tp5961
I1
s(g4026
g2044
tp5962
I2
s(S'books'
p5963
S'since'
p5964
tp5965
I1
s(S'each'
p5966
S'1500'
p5967
tp5968
I1
s(S'city'
p5969
g4167
tp5970
I1
s(g5343
S'outlays'
p5971
tp5972
I1
s(S'the'
p5973
S'patient'
p5974
tp5975
I2
s(S'rules'
p5976
g3081
tp5977
I1
s(g5097
g5400
tp5978
I1
s(g3544
S'some'
p5979
tp5980
I1
s(S'are'
p5981
S'outmoded'
p5982
tp5983
I1
s(g5308
S'follow'
p5984
tp5985
I1
s(S'judge'
p5986
S'john'
p5987
tp5988
I1
s(g1316
S'the'
p5989
tp5990
I3
s(S'of'
p5991
g3418
tp5992
I1
s(S'in'
p5993
g4766
tp5994
I1
s(S'bonds'
p5995
g5159
tp5996
I1
s(S'caused'
p5997
g2727
tp5998
I1
s(g1583
S'in'
p5999
tp6000
I1
s(S'alternative'
p6001
g4889
tp6002
I1
s(S'13'
p6003
S'schools'
p6004
tp6005
I1
s(g627
S'state'
p6006
tp6007
I1
s(g4176
g4221
tp6008
I1
s(g3775
S'them'
p6009
tp6010
I1
s(S'costly'
p6011
g5057
tp6012
I1
s(S'pertained'
p6013
S'to'
p6014
tp6015
I1
s(S'proposals'
p6016
S'for'
p6017
tp6018
I2
s(g3824
g2153
tp6019
I1
s(S'cost'
p6020
S'for'
p6021
tp6022
I1
s(S'burglary'
p6023
S'trial'
p6024
tp6025
I1
s(S'plans'
p6026
S'to'
p6027
tp6028
I2
s(S'stays'
p6029
S'up'
p6030
tp6031
I1
s(g4195
S'chairman'
p6032
tp6033
I1
s(S'the'
p6034
S'seven'
p6035
tp6036
I1
s(S'said'
p6037
S'this'
p6038
tp6039
I1
s(g3054
S'4'
tp6040
I2
s(g2795
S'of'
p6041
tp6042
I2
s(S'subpenas'
p6043
S'to'
p6044
tp6045
I1
s(S'county'
p6046
g3927
tp6047
I1
s(S'the'
p6048
g5762
tp6049
I1
s(S'captain'
p6050
S'of'
p6051
tp6052
I1
s(S'but'
p6053
S'in'
p6054
tp6055
I1
s(S'might'
p6056
S'disable'
p6057
tp6058
I1
s(S'committee'
p6059
g4038
tp6060
I1
s(g5100
g1000
tp6061
I1
s(g4862
S'thursday'
p6062
tp6063
I1
s(S'the'
p6064
g4015
tp6065
I1
s(S'his'
p6066
g4470
tp6067
I1
s(g3749
S'senators'
p6068
tp6069
I1
s(S'which'
p6070
S'have'
p6071
tp6072
I1
s(S'including'
p6073
S'scott'
p6074
tp6075
I1
s(g1924
g1885
tp6076
I1
s(g794
g5528
tp6077
I1
s(S'enabling'
p6078
S'act'
p6079
tp6080
I1
s(S'the'
p6081
g5774
tp6082
I1
s(S'clerical'
p6083
S'personnel'
p6084
tp6085
I1
s(S'an'
p6086
g5759
tp6087
I1
s(g4054
g5682
tp6088
I1
s(g5132
g4068
tp6089
I1
s(S'which'
p6090
S'a'
tp6091
I1
s(g5974
g3855
tp6092
I1
s(S'cotten'
p6093
S'of'
p6094
tp6095
I1
s(g525
g3612
tp6096
I1
s(S'opposition'
p6097
S'keynote'
p6098
tp6099
I1
s(S'action'
p6100
S'pelham'
p6101
tp6102
I1
s(S'would'
p6103
S'order'
p6104
tp6105
I1
s(g1574
S'notice'
p6106
tp6107
I1
s(g1226
S'but'
p6108
tp6109
I1
s(S'saw'
p6110
S'in'
p6111
tp6112
I1
s(S'that'
p6113
S'it'
p6114
tp6115
I1
s(g1070
g1109
tp6116
I1
s(S'directed'
p6117
g4268
tp6118
I1
s(g1865
S'over'
p6119
tp6120
I1
s(g5957
S'sunday'
p6121
tp6122
I1
s(S'home'
p6123
S'bills'
p6124
tp6125
I1
s(g429
S'people'
p6126
tp6127
I1
s(S'to'
p6128
g2999
tp6129
I1
s(g5271
S'dependency'
p6130
tp6131
I1
s(g4757
g5219
tp6132
I1
s(S'manner'
p6133
S'that'
p6134
tp6135
I1
s(S'who'
p6136
S'had'
p6137
tp6138
I1
s(g4768
S'a'
tp6139
I1
s(S'discharging'
p6140
S'the'
p6141
tp6142
I1
s(g3185
S'white'
p6143
tp6144
I1
s(S'schools'
p6145
g2437
tp6146
I1
s(g5600
S'ordinary'
p6147
tp6148
I1
s(S'outside'
p6149
S'of'
p6150
tp6151
I1
s(S'studied'
p6152
S'at'
p6153
tp6154
I1
s(S'sign'
p6155
S'a'
tp6156
I1
s(S'which'
p6157
g8
tp6158
I1
s(S'an'
p6159
g4327
tp6160
I1
s(g1735
g4555
tp6161
I1
s(S'was'
p6162
S'so'
p6163
tp6164
I1
s(g3805
S'no'
p6165
tp6166
I1
s(g5297
g4518
tp6167
I1
s(g189
g2750
tp6168
I1
s(S'trial'
p6169
S'bellows'
p6170
tp6171
I2
s(g652
S'advisement'
p6172
tp6173
I2
s(g4929
S'3'
tp6174
I1
s(g4981
S'discharge'
p6175
tp6176
I1
s(S'and'
p6177
g5490
tp6178
I1
s(g2517
g4047
tp6179
I1
s(g1633
S'and'
p6180
tp6181
I1
s(g406
S'issue'
p6182
tp6183
I3
s(S'debate'
p6184
g2918
tp6185
I1
s(g814
S'a'
tp6186
I1
s(g1948
S'only'
p6187
tp6188
I1
s(g4926
g4036
tp6189
I1
s(g2701
S'to'
p6190
tp6191
I1
s(S'the'
p6192
S'economy'
p6193
tp6194
I1
s(g4733
S'millions'
p6195
tp6196
I1
s(S'registration'
p6197
S'and'
p6198
tp6199
I1
s(S'very'
p6200
g5620
tp6201
I1
s(S'a'
S'dispute'
p6202
tp6203
I1
s(g2944
S'years'
p6204
tp6205
I1
s(g3229
S'in'
p6206
tp6207
I1
s(S'will'
p6208
S'succeed'
p6209
tp6210
I1
s(g5924
S'citizens'
p6211
tp6212
I1
s(S'principal'
p6213
g3112
tp6214
I1
s(g495
S'james'
p6215
tp6216
I1
s(S'be'
p6217
g564
tp6218
I3
s(S'cent'
p6219
S'3'
tp6220
I1
s(g400
S'congress'
p6221
tp6222
I1
s(S'a'
S'bit'
p6223
tp6224
I2
s(g2844
g5665
tp6225
I1
s(S'beaumont'
p6226
g92
tp6227
I1
s(S'a'
g2948
tp6228
I1
s(g3590
S'constituted'
p6229
tp6230
I1
s(S'attack'
p6231
g5570
tp6232
I1
s(g3967
g3107
tp6233
I2
s(S'the'
p6234
S'coolest'
p6235
tp6236
I2
s(S'we'
p6237
S'must'
p6238
tp6239
I1
s(S'future'
p6240
S'legislature'
p6241
tp6242
I1
s(g5199
g1132
tp6243
I1
s(S'be'
p6244
g2589
tp6245
I1
s(S'writing'
p6246
S'the'
p6247
tp6248
I1
s(S'the'
p6249
g5211
tp6250
I1
s(g5678
g3823
tp6251
I1
s(g3772
S'on'
p6252
tp6253
I1
s(S'adc'
p6254
S'cases'
p6255
tp6256
I1
s(S'thru'
p6257
g5127
tp6258
I1
s(g3147
S'to'
p6259
tp6260
I1
s(S'other'
p6261
S'large'
p6262
tp6263
I1
s(g2475
S'the'
p6264
tp6265
I1
s(S'said'
p6266
g4252
tp6267
I1
s(S'by'
p6268
g4064
tp6269
I1
s(g1833
g5287
tp6270
I1
s(S'for'
p6271
S'election'
p6272
tp6273
I1
s(S'contracts'
p6274
g5206
tp6275
I1
s(S'hartsfield'
p6276
S'has'
p6277
tp6278
I1
s(S'of'
p6279
S'citizens'
p6280
tp6281
I1
s(S'visit'
p6282
S'to'
p6283
tp6284
I1
s(g4213
S'gas'
p6285
tp6286
I1
s(S'be'
p6287
g6117
tp6288
I1
s(S'to'
p6289
S'get'
p6290
tp6291
I1
s(S'calendar'
p6292
g2814
tp6293
I1
s(g3475
S'merger'
p6294
tp6295
I1
s(g3522
g4858
tp6296
I1
s(g5467
S'the'
p6297
tp6298
I1
s(g2148
S'on'
p6299
tp6300
I1
s(S'pay'
p6301
g3360
tp6302
I2
s(S'go'
p6303
g5049
tp6304
I1
s(S'a'
g2338
tp6305
I1
s(g4410
g1355
tp6306
I1
s(S'9'
S'president'
p6307
tp6308
I1
s(g3962
S'in'
p6309
tp6310
I1
s(g3469
g1336
tp6311
I1
s(S'year'
p6312
S'federal'
p6313
tp6314
I1
s(g2910
S'the'
p6315
tp6316
I1
s(S'retailers'
p6317
S'would'
p6318
tp6319
I1
s(g2633
g3164
tp6320
I1
s(g4851
S'days'
p6321
tp6322
I1
s(S'calls'
p6323
g1147
tp6324
I1
s(S'pay'
p6325
S'for'
p6326
tp6327
I2
s(S'department'
p6328
S'is'
p6329
tp6330
I1
s(g1686
g3786
tp6331
I1
s(g6165
S'wish'
p6332
tp6333
I1
s(g738
g247
tp6334
I6
s(S'portions'
p6335
S'of'
p6336
tp6337
I1
s(S'county'
p6338
g3494
tp6339
I1
s(g583
g89
tp6340
I1
s(S'for'
p6341
S'garland'
p6342
tp6343
I1
s(S'thing'
p6344
g491
tp6345
I1
s(S'by'
p6346
S'louis'
p6347
tp6348
I1
s(S'to'
p6349
S'a'
tp6350
I3
s(g4660
S'to'
p6351
tp6352
I1
s(S'the'
p6353
S'georgia'
p6354
tp6355
I2
s(g4514
g4937
tp6356
I1
s(S'barber'
p6357
g810
tp6358
I1
s(g5670
S'proposals'
p6359
tp6360
I1
s(S'cities'
p6361
S'get'
p6362
tp6363
I1
s(S'crisis'
p6364
g1295
tp6365
I1
s(g6134
g4756
tp6366
I2
s(g700
S'meager'
p6367
tp6368
I1
s(S'the'
p6369
S"children's"
p6370
tp6371
I1
s(S'was'
p6372
S'a'
tp6373
I4
s(S'leaned'
p6374
S'over'
p6375
tp6376
I1
s(S'of'
p6377
g4882
tp6378
I1
s(g3096
S'a'
tp6379
I1
s(S'precincts'
p6380
S'of'
p6381
tp6382
I2
s(S'bonds'
p6383
g2920
tp6384
I1
s(g3912
S'to'
p6385
tp6386
I1
s(g2190
g1859
tp6387
I1
s(S'to'
p6388
g4547
tp6389
I2
s(g3610
S'confidence'
p6390
tp6391
I1
s(S'federal'
p6392
g3882
tp6393
I1
s(S'for'
p6394
S'them'
p6395
tp6396
I1
s(g355
g3167
tp6397
I1
s(g2762
S'announced'
p6398
tp6399
I1
s(g6126
g1091
tp6400
I1
s(S'and'
p6401
S'42d'
p6402
tp6403
I1
s(S'atlanta'
p6404
S'with'
p6405
tp6406
I1
s(g4782
S'confidence'
p6407
tp6408
I1
s(g768
g4442
tp6409
I8
s(S'kennedy'
p6410
g4338
tp6411
I1
s(S'port'
p6412
S'a'
tp6413
I1
s(g3313
g1045
tp6414
I1
s(S'proposal'
p6415
S'is'
p6416
tp6417
I2
s(S'schwartz'
p6418
S'of'
p6419
tp6420
I1
s(g5688
S'for'
p6421
tp6422
I1
s(g4957
S'in'
p6423
tp6424
I1
s(g918
S'new'
p6425
tp6426
I3
s(g6221
g4203
tp6427
I1
s(S'4'
g2592
tp6428
I1
s(S'estimated'
p6429
g602
tp6430
I2
s(g6175
S'from'
p6431
tp6432
I1
s(S'acting'
p6433
g5986
tp6434
I1
s(g4112
g1118
tp6435
I1
s(S'to'
p6436
S'my'
p6437
tp6438
I1
s(S'employed'
p6439
S'for'
p6440
tp6441
I1
s(S'was'
p6442
g1867
tp6443
I1
s(g4144
S'it'
p6444
tp6445
I1
s(g1477
S'set'
p6446
tp6447
I2
s(S'under'
p6448
S'a'
tp6449
I2
s(S'to'
p6450
S'change'
p6451
tp6452
I1
s(S'guilt'
p6453
S'or'
p6454
tp6455
I1
s(g6084
S'as'
p6456
tp6457
I1
s(S'a'
g4999
tp6458
I1
s(S'by'
p6459
S'mayornominate'
p6460
tp6461
I1
s(g519
S'since'
p6462
tp6463
I1
s(S'the'
p6464
g1106
tp6465
I1
s(S'resolution'
p6466
g4271
tp6467
I1
s(g3665
g4066
tp6468
I1
s(S'deaf'
p6469
S'students'
p6470
tp6471
I1
s(S'felt'
p6472
S'could'
p6473
tp6474
I1
s(S'a'
S'24'
p6475
tp6476
I1
s(S'the'
p6477
S'education'
p6478
tp6479
I1
s(S'corporations'
p6480
S'to'
p6481
tp6482
I1
s(g4245
g6357
tp6483
I1
s(S'bonds'
p6484
g3720
tp6485
I1
s(g5856
S'court'
p6486
tp6487
I1
s(g1353
S'will'
p6488
tp6489
I6
s(S'jury'
p6490
g6043
tp6491
I1
s(g2968
g997
tp6492
I1
s(g4392
S'had'
p6493
tp6494
I2
s(g1661
S'the'
p6495
tp6496
I1
s(g162
S'home'
p6497
tp6498
I1
s(S'long'
p6499
S'range'
p6500
tp6501
I1
s(g6180
S'noes'
p6502
tp6503
I1
s(S'of'
p6504
S'san'
p6505
tp6506
I1
s(g2698
g1524
tp6507
I3
s(S'an'
p6508
g4218
tp6509
I2
s(S'142'
p6510
g4848
tp6511
I1
s(S'in'
p6512
S'scholarship'
p6513
tp6514
I1
s(S'from'
p6515
g2697
tp6516
I1
s(S'now'
p6517
S'6'
tp6518
I1
s(g5509
S'to'
p6519
tp6520
I1
s(g2896
S'peanut'
p6521
tp6522
I1
s(S'much'
p6523
S'of'
p6524
tp6525
I1
s(g4485
S'countywide'
p6526
tp6527
I1
s(g2024
g1199
tp6528
I1
s(g5092
S'chief'
p6529
tp6530
I1
s(S'be'
p6531
S'in'
p6532
tp6533
I1
s(S'county'
p6534
S'democratic'
p6535
tp6536
I1
s(S'bill'
p6537
g3864
tp6538
I2
s(S'ridge'
p6539
g1976
tp6540
I1
s(g224
S'the'
p6541
tp6542
I1
s(S'names'
p6543
S'of'
p6544
tp6545
I1
s(S'automatically'
p6546
g6349
tp6547
I1
s(S'but'
p6548
S'the'
p6549
tp6550
I1
s(S'special'
p6551
g524
tp6552
I1
s(g298
g3432
tp6553
I4
s(g2620
S'strong'
p6554
tp6555
I1
s(g5149
S'funds'
p6556
tp6557
I1
s(g1176
g4795
tp6558
I1
s(g3600
S'department'
p6559
tp6560
I1
s(S'you'
p6561
g4499
tp6562
I1
s(g4458
S'utility'
p6563
tp6564
I1
s(g3953
S'for'
p6565
tp6566
I1
s(g5110
S'rally'
p6567
tp6568
I1
s(S'cost'
p6569
g4552
tp6570
I1
s(g641
S'a'
tp6571
I2
s(S'since'
p6572
S'he'
p6573
tp6574
I1
s(g673
S'per'
p6575
tp6576
I1
s(S'on'
p6577
S'capitol'
p6578
tp6579
I1
s(g5785
S'eligio'
p6580
tp6581
I1
s(g3603
S'choose'
p6582
tp6583
I1
s(g771
S'that'
p6584
tp6585
I1
s(g3534
S'and'
p6586
tp6587
I1
s(S'leader'
p6588
g4581
tp6589
I1
s(S'the'
p6590
g5451
tp6591
I1
s(S'patient'
p6592
S'apart'
p6593
tp6594
I1
s(S'he'
p6595
g3536
tp6596
I1
s(S'friday'
p6597
S'will'
p6598
tp6599
I1
s(S'of'
p6600
g4523
tp6601
I1
s(S'a'
S'i'
tp6602
I1
s(g5335
S'likely'
p6603
tp6604
I1
s(S'his'
p6605
S'summer'
p6606
tp6607
I1
s(S'and'
p6608
g3149
tp6609
I1
s(S'republicans'
p6610
g1853
tp6611
I1
s(S'1'
S'per'
p6612
tp6613
I1
s(S'other'
p6614
S'matters'
p6615
tp6616
I1
s(g5086
g696
tp6617
I1
s(g5775
g6605
tp6618
I1
s(g4563
S'in'
p6619
tp6620
I1
s(g894
S'his'
p6621
tp6622
I1
s(g2798
g4956
tp6623
I1
s(g5257
S'law'
p6624
tp6625
I2
s(g5401
S'that'
p6626
tp6627
I1
s(g534
g5443
tp6628
I1
s(S'who'
p6629
S'became'
p6630
tp6631
I1
s(S'house'
p6632
S'pressure'
p6633
tp6634
I1
s(g2467
S'most'
p6635
tp6636
I1
s(S'a'
g804
tp6637
I1
s(S'2'
S'the'
p6638
tp6639
I1
s(g6421
g1755
tp6640
I1
s(g4331
g1207
tp6641
I3
s(g4022
g5475
tp6642
I1
s(S'garza'
p6643
S'of'
p6644
tp6645
I1
s(S'education'
p6646
g4682
tp6647
I1
s(g4353
g4702
tp6648
I1
s(S'election'
p6649
g2140
tp6650
I1
s(S'fit'
p6651
S'to'
p6652
tp6653
I1
s(S'the'
p6654
S'payroll'
p6655
tp6656
I2
s(g6367
g5539
tp6657
I1
s(g2704
S'felix'
p6658
tp6659
I1
s(S'better'
p6660
g5083
tp6661
I1
s(S'washington'
p6662
g5737
tp6663
I1
s(g3273
g876
tp6664
I1
s(S'policies'
p6665
S'it'
p6666
tp6667
I1
s(S'education'
p6668
g1289
tp6669
I1
s(g712
S'attorney'
p6670
tp6671
I1
s(S"georgia's"
p6672
S'congressmen'
p6673
tp6674
I1
s(g1107
g5838
tp6675
I1
s(S'processes'
p6676
g264
tp6677
I1
s(g2582
g3755
tp6678
I1
s(S'was'
p6679
S'given'
p6680
tp6681
I1
s(S'operating'
p6682
S'procedures'
p6683
tp6684
I1
s(S'tax'
p6685
g3136
tp6686
I1
s(g3694
g5878
tp6687
I46
s(S'there'
p6688
g2562
tp6689
I1
s(S'welfare'
p6690
S'department'
p6691
tp6692
I1
s(S'highway'
p6693
S'department'
p6694
tp6695
I4
s(S'more'
p6696
g3376
tp6697
I1
s(g1942
g5755
tp6698
I1
s(S"nation's"
p6699
g6392
tp6700
I1
s(S'a'
g2852
tp6701
I1
s(S'a'
g949
tp6702
I1
s(S'program'
p6703
S'by'
p6704
tp6705
I1
s(g358
g3725
tp6706
I3
s(S'first'
p6707
S"year's"
p6708
tp6709
I1
s(g6074
S'hudson'
p6710
tp6711
I1
s(g6462
S'its'
p6712
tp6713
I1
s(S'ribbon'
p6714
S'citizens'
p6715
tp6716
I1
s(S'hearing'
p6717
S'since'
p6718
tp6719
I1
s(S'thursday'
p6720
S'a'
tp6721
I1
s(S'feel'
p6722
S'that'
p6723
tp6724
I1
s(S'the'
p6725
S'voters'
p6726
tp6727
I2
s(g4590
g5238
tp6728
I1
s(g998
g3091
tp6729
I1
s(S'featured'
p6730
S'speaker'
p6731
tp6732
I1
s(S'year'
p6733
S'should'
p6734
tp6735
I1
s(g4296
S'originally'
p6736
tp6737
I1
s(g6495
S'fight'
p6738
tp6739
I1
s(g4595
S'to'
p6740
tp6741
I1
s(g744
g614
tp6742
I1
s(g4607
g3064
tp6743
I1
s(S'county'
p6744
S'altho'
p6745
tp6746
I1
s(g800
S'both'
p6747
tp6748
I1
s(S'client'
p6749
S'bellows'
p6750
tp6751
I1
s(g1592
g5639
tp6752
I1
s(g5901
S'republicans'
p6753
tp6754
I3
s(g612
g4242
tp6755
I1
s(S'estimate'
p6756
g6113
tp6757
I1
s(S'virgil'
p6758
S'martin'
p6759
tp6760
I1
s(g4448
g321
tp6761
I1
s(S'15'
p6762
g3533
tp6763
I1
s(g5410
g6499
tp6764
I1
s(S'james'
p6765
g6093
tp6766
I1
s(S'the'
p6767
g1952
tp6768
I1
s(S'formby'
p6769
g3085
tp6770
I1
s(g4076
g5680
tp6771
I1
s(g3950
S'speed'
p6772
tp6773
I1
s(S'as'
p6774
S'attorney'
p6775
tp6776
I1
s(S'talked'
p6777
g4728
tp6778
I1
s(g6423
S'1953'
p6779
tp6780
I1
s(S'texas'
p6781
g4118
tp6782
I1
s(S'and'
p6783
g2180
tp6784
I1
s(S'was'
p6785
g3251
tp6786
I1
s(S'karns'
p6787
g4357
tp6788
I2
s(g2005
S'inure'
p6789
tp6790
I1
s(g3830
S'per'
p6791
tp6792
I1
s(S'been'
p6793
g861
tp6794
I1
s(S'last'
p6795
g5782
tp6796
I1
s(S'make'
p6797
g1539
tp6798
I3
s(g4629
g2516
tp6799
I4
s(g4348
S'of'
p6800
tp6801
I1
s(S'dollars'
p6802
S'said'
p6803
tp6804
I1
s(g6193
S'he'
p6805
tp6806
I1
s(S'the'
p6807
S'state'
p6808
tp6809
I15
s(S'be'
p6810
S'raised'
p6811
tp6812
I1
s(S'states'
p6813
g946
tp6814
I1
s(S'discourage'
p6815
g3596
tp6816
I1
s(g5456
S'the'
p6817
tp6818
I1
s(S'the'
p6819
S'railroad'
p6820
tp6821
I1
s(S'go'
p6822
S'to'
p6823
tp6824
I1
s(g1986
S'i'
tp6825
I1
s(S'the'
p6826
S'american'
p6827
tp6828
I1
s(g1182
S'as'
p6829
tp6830
I1
s(g956
g2988
tp6831
I1
s(g6321
g4899
tp6832
I1
s(S'it'
p6833
g3780
tp6834
I5
s(g3886
S'social'
p6835
tp6836
I1
s(g3844
S'a'
tp6837
I1
s(g3348
S'that'
p6838
tp6839
I1
s(g210
S'would'
p6840
tp6841
I1
s(S'4800'
p6842
S'of'
p6843
tp6844
I1
s(S'this'
p6845
S'would'
p6846
tp6847
I1
s(g6497
g3464
tp6848
I1
s(g3089
S'in'
p6849
tp6850
I1
s(S'the'
p6851
g6717
tp6852
I1
s(S'first'
p6853
S'30'
p6854
tp6855
I1
s(g5593
g5014
tp6856
I1
s(S'doctor'
p6857
S'and'
p6858
tp6859
I1
s(S'taxes'
p6860
g54
tp6861
I1
s(S'won'
p6862
g6459
tp6863
I1
s(S'place'
p6864
g6543
tp6865
I1
s(S'other'
p6866
g2010
tp6867
I1
s(S'jury'
p6868
g1264
tp6869
I1
s(S'on'
p6870
S'to'
p6871
tp6872
I1
s(S'will'
p6873
S'permit'
p6874
tp6875
I1
s(g5683
g5380
tp6876
I1
s(S'is'
p6877
g4763
tp6878
I1
s(g6405
S'exception'
p6879
tp6880
I1
s(S'to'
p6881
S'12'
p6882
tp6883
I1
s(S'similar'
p6884
S'proposal'
p6885
tp6886
I1
s(S'incorporated'
p6887
g1425
tp6888
I1
s(g6071
g428
tp6889
I1
s(g1771
g5784
tp6890
I1
s(S'a'
g530
tp6891
I1
s(S'of'
p6892
g1339
tp6893
I2
s(S'term'
p6894
g1112
tp6895
I1
s(g3374
S'of'
p6896
tp6897
I1
s(g4060
S'that'
p6898
tp6899
I1
s(g3697
S'the'
p6900
tp6901
I1
s(S'the'
p6902
g5804
tp6903
I3
s(S'year'
p6904
S'passed'
p6905
tp6906
I1
s(S'a'
g2233
tp6907
I1
s(g3841
S'and'
p6908
tp6909
I1
s(g6738
S'for'
p6910
tp6911
I1
s(S'their'
p6912
g2489
tp6913
I1
s(S'3'
S'of'
p6914
tp6915
I1
s(g6840
S'boost'
p6916
tp6917
I1
s(S'will'
p6918
S'mention'
p6919
tp6920
I1
s(S'2000'
p6921
S'a'
tp6922
I1
s(g805
S'tax'
p6923
tp6924
I1
s(S'reelected'
p6925
S'for'
p6926
tp6927
I1
s(S"mayor's"
p6928
g582
tp6929
I1
s(S'the'
p6930
g4928
tp6931
I1
s(S'service'
p6932
S'for'
p6933
tp6934
I1
s(S'petition'
p6935
S'said'
p6936
tp6937
I1
s(g4334
S'raymondville'
p6938
tp6939
I1
s(g4571
g743
tp6940
I1
s(g5064
g4187
tp6941
I1
s(g475
g2630
tp6942
I1
s(g1248
S'after'
p6943
tp6944
I1
s(S'the'
p6945
g4024
tp6946
I1
s(g26
S'experienced'
p6947
tp6948
I1
s(g1451
g5134
tp6949
I1
s(g4287
S'alan'
p6950
tp6951
I1
s(S'the'
p6952
g6078
tp6953
I1
s(g2737
S'would'
p6954
tp6955
I1
s(g5626
g3742
tp6956
I1
s(S'to'
p6957
g6762
tp6958
I1
s(S'a'
S'failure'
p6959
tp6960
I1
s(S'to'
p6961
g645
tp6962
I1
s(g1519
S'plan'
p6963
tp6964
I1
s(S'advisement'
p6965
g3451
tp6966
I1
s(g1961
g2346
tp6967
I1
s(S'new'
p6968
S'york'
p6969
tp6970
I1
s(S'paid'
p6971
g669
tp6972
I1
s(S'his'
p6973
g4820
tp6974
I1
s(S'tonight'
p6975
S'confirmed'
p6976
tp6977
I1
s(S'the'
p6978
S'request'
p6979
tp6980
I1
s(S'federal'
p6981
S'funds'
p6982
tp6983
I2
s(g3261
g2239
tp6984
I1
s(S'a'
S'relative'
p6985
tp6986
I1
s(g6683
g2169
tp6987
I1
s(S'sought'
p6988
S'later'
p6989
tp6990
I1
s(g2123
S'and'
p6991
tp6992
I1
s(g4735
S'and'
p6993
tp6994
I1
s(S'as'
p6995
g761
tp6996
I1
s(g6580
S'kika'
p6997
tp6998
I1
s(g828
S'when'
p6999
tp7000
I1
s(g1652
g3116
tp7001
I1
s(S'lamar'
p7002
g5481
tp7003
I1
s(g6211
g6059
tp7004
I2
s(S'child'
p7005
S'welfare'
p7006
tp7007
I1
s(S'rural'
p7008
S'and'
p7009
tp7010
I1
s(S'be'
p7011
S'issued'
p7012
tp7013
I1
s(g5146
g1181
tp7014
I1
s(S'the'
p7015
S'29th'
p7016
tp7017
I1
s(g2602
S'and'
p7018
tp7019
I1
s(S'border'
p7020
g1304
tp7021
I1
s(S'mammoth'
p7022
g1008
tp7023
I1
s(g2734
S'the'
p7024
tp7025
I1
s(S'children'
p7026
g5997
tp7027
I1
s(g4324
S'persons'
p7028
tp7029
I1
s(g1220
S'would'
p7030
tp7031
I1
s(S'county'
p7032
S'is'
p7033
tp7034
I1
s(g4204
S'with'
p7035
tp7036
I1
s(S'ward'
p7037
g2817
tp7038
I1
s(S'as'
p7039
g3073
tp7040
I1
s(S'georgia'
p7041
g899
tp7042
I1
s(S'jury'
p7043
g2389
tp7044
I1
s(g921
g3344
tp7045
I1
s(g6989
S'on'
p7046
tp7047
I1
s(g2267
S'dependency'
p7048
tp7049
I1
s(S'people'
p7050
S'over'
p7051
tp7052
I1
s(S'were'
p7053
S'ignored'
p7054
tp7055
I1
s(g976
g2834
tp7056
I1
s(S"georgia's"
p7057
S'automobile'
p7058
tp7059
I1
s(S'given'
p7060
S'a'
tp7061
I1
s(g4318
S'quite'
p7062
tp7063
I1
s(g5471
S'taxes'
p7064
tp7065
I1
s(S'schools'
p7066
S'or'
p7067
tp7068
I1
s(S'1'
S'1963'
p7069
tp7070
I1
s(g5077
S'school'
p7071
tp7072
I1
s(S'law'
p7073
S'cannot'
p7074
tp7075
I1
s(S'and'
p7076
g5995
tp7077
I1
s(S"daniel's"
p7078
S'abandoned'
p7079
tp7080
I1
s(S'mission'
p7081
S'sam'
p7082
tp7083
I1
s(g6979
g2125
tp7084
I1
s(g817
S'sherman'
p7085
tp7086
I2
s(g4081
g2062
tp7087
I1
s(g2447
S'said'
p7088
tp7089
I1
s(S'the'
p7090
g1069
tp7091
I1
s(S'calls'
p7092
g2104
tp7093
I1
s(g5955
S'judge'
p7094
tp7095
I1
s(g7069
S'if'
p7096
tp7097
I1
s(S'of'
p7098
g1632
tp7099
I1
s(S'over'
p7100
g3288
tp7101
I1
s(g1415
g3067
tp7102
I1
s(S'a'
g3486
tp7103
I1
s(g646
S'program'
p7104
tp7105
I1
s(S'themselves'
p7106
g5954
tp7107
I1
s(S'a'
g2260
tp7108
I1
s(g6262
g6361
tp7109
I1
s(S'for'
p7110
g929
tp7111
I1
s(g4293
g720
tp7112
I6
s(S'violation'
p7113
S'of'
p7114
tp7115
I2
s(g1214
g3975
tp7116
I1
s(g7074
S'be'
p7117
tp7118
I1
s(g1351
S'election'
p7119
tp7120
I1
s(S'more'
p7121
g1740
tp7122
I1
s(S'it'
p7123
S'daniel'
p7124
tp7125
I1
s(g5516
S'public'
p7126
tp7127
I1
s(g4002
S'education'
p7128
tp7129
I1
s(g3798
S'the'
p7130
tp7131
I1
s(g703
g4232
tp7132
I1
s(S'a'
g4740
tp7133
I1
s(S'would'
p7134
g6569
tp7135
I1
s(g2916
S'kill'
p7136
tp7137
I1
s(S'locate'
p7138
S'such'
p7139
tp7140
I1
s(g5449
g1330
tp7141
I1
s(g782
g3745
tp7142
I1
s(g6969
g176
tp7143
I1
s(g2087
g5815
tp7144
I1
s(S'price'
p7145
g7078
tp7146
I1
s(g5266
g101
tp7147
I1
s(S'licensing'
p7148
S'fee'
p7149
tp7150
I1
s(S'21st'
p7151
g5810
tp7152
I1
s(g1890
S'or'
p7153
tp7154
I1
s(g6062
S'the'
p7155
tp7156
I1
s(g4791
S'most'
p7157
tp7158
I1
s(S'fulton'
p7159
g1892
tp7160
I1
s(S'police'
p7161
g6023
tp7162
I1
s(S'carey'
p7163
S'williams'
p7164
tp7165
I1
s(S'believe'
p7166
g4175
tp7167
I1
s(S'run'
p7168
S'1'
tp7169
I1
s(g3180
S'racial'
p7170
tp7171
I1
s(S'management'
p7172
g824
tp7173
I1
s(S'a'
S'10'
p7174
tp7175
I1
s(S'president'
p7176
S'noted'
p7177
tp7178
I1
s(g5629
S'for'
p7179
tp7180
I1
s(S'an'
p7181
S'exgambler'
p7182
tp7183
I1
s(S'the'
p7184
g6292
tp7185
I1
s(g2482
g4225
tp7186
I1
s(g2341
S'in'
p7187
tp7188
I1
s(S'money'
p7189
S'which'
p7190
tp7191
I1
s(S'the'
p7192
S'miller'
p7193
tp7194
I1
s(S'place'
p7195
S'a'
tp7196
I1
s(S'the'
p7197
S'latest'
p7198
tp7199
I1
s(S'to'
p7200
g3672
tp7201
I1
s(g3267
S'medical'
p7202
tp7203
I1
s(g5009
g4830
tp7204
I1
s(g1895
g737
tp7205
I6
s(g3556
g2888
tp7206
I1
s(g3853
g3218
tp7207
I1
s(S'subcommittee'
p7208
S'for'
p7209
tp7210
I1
s(g3993
g1680
tp7211
I1
s(g2695
g3543
tp7212
I1
s(g1089
S'loan'
p7213
tp7214
I1
s(g7182
S'from'
p7215
tp7216
I1
s(S'8'
g690
tp7217
I1
s(g4916
S'dallas'
p7218
tp7219
I1
s(g3011
S'of'
p7220
tp7221
I3
s(S'follow'
p7222
S'shortly'
p7223
tp7224
I1
s(S'because'
p7225
S'it'
p7226
tp7227
I1
s(S'would'
p7228
g7011
tp7229
I14
s(g6652
g1521
tp7230
I1
s(S'policeman'
p7231
g1579
tp7232
I1
s(S'night'
p7233
g5290
tp7234
I1
s(S'estate'
p7235
S'brokers'
p7236
tp7237
I1
s(S'election'
p7238
S'investigation'
p7239
tp7240
I1
s(g6440
g2397
tp7241
I1
s(S'of'
p7242
S'persons'
p7243
tp7244
I1
s(S'near'
p7245
g3123
tp7246
I1
s(S'officials'
p7247
g6429
tp7248
I2
s(g3449
g253
tp7249
I1
s(S'house'
p7250
S'press'
p7251
tp7252
I1
s(g4321
S'vote'
p7253
tp7254
I1
s(g1381
S'he'
p7255
tp7256
I1
s(g1040
g4949
tp7257
I1
s(g4932
g2940
tp7258
I1
s(S'little'
p7259
g940
tp7260
I1
s(g6554
g2026
tp7261
I1
s(S'said'
p7262
g440
tp7263
I6
s(S'the'
p7264
S'gubernatorial'
p7265
tp7266
I1
s(S'the'
p7267
g714
tp7268
I1
s(g2135
g3609
tp7269
I1
s(S'receiving'
p7270
S'stolen'
p7271
tp7272
I1
s(S'aj'
p7273
g1812
tp7274
I1
s(S'the'
p7275
g3341
tp7276
I1
s(S'81'
p7277
S'to'
p7278
tp7279
I1
s(g1083
S'any'
p7280
tp7281
I1
s(S'underlying'
p7282
S'causes'
p7283
tp7284
I1
s(S'tell'
p7285
S'home'
p7286
tp7287
I1
s(g1953
g7134
tp7288
I1
s(g4531
S'on'
p7289
tp7290
I1
s(g4371
g6643
tp7291
I1
s(S'dollar'
p7292
g4206
tp7293
I1
s(S'cook'
p7294
g1879
tp7295
I3
s(g5757
g3899
tp7296
I1
s(S'cruelty'
p7297
g250
tp7298
I1
s(S'his'
p7299
g4576
tp7300
I1
s(S'urged'
p7301
S'that'
p7302
tp7303
I2
s(g6187
g2083
tp7304
I1
s(g4612
S'on'
p7305
tp7306
I1
s(S'it'
p7307
g990
tp7308
I1
s(g6451
g5531
tp7309
I1
s(S'of'
p7310
S'bank'
p7311
tp7312
I1
s(g4155
g6152
tp7313
I1
s(g3304
S'a'
tp7314
I1
s(S'williams'
p7315
S'got'
p7316
tp7317
I1
s(S'been'
p7318
S'subpenaed'
p7319
tp7320
I1
s(g4568
g5314
tp7321
I1
s(g4105
S'to'
p7322
tp7323
I1
s(g2280
g1196
tp7324
I1
s(g2898
g5574
tp7325
I1
s(S'counsel'
p7326
g3187
tp7327
I1
s(g1557
g4148
tp7328
I1
s(g7253
S'bonds'
p7329
tp7330
I1
s(S'the'
p7331
S'scholastic'
p7332
tp7333
I1
s(g540
g6136
tp7334
I1
s(S'was'
p7335
g3989
tp7336
I1
s(g2809
g5186
tp7337
I1
s(g4894
S'discrimination'
p7338
tp7339
I2
s(g5577
g2761
tp7340
I1
s(g6297
S'bond'
p7341
tp7342
I1
s(g3875
g1219
tp7343
I1
s(g319
S'this'
p7344
tp7345
I1
s(g6896
g2604
tp7346
I1
s(S'the'
p7347
S'signal'
p7348
tp7349
I1
s(S'and'
p7350
g7315
tp7351
I1
s(S'of'
p7352
g4342
tp7353
I1
s(S'could'
p7354
g5631
tp7355
I1
s(g6673
g1600
tp7356
I1
s(g5826
S'by'
p7357
tp7358
I1
s(S'the'
p7359
S'pending'
p7360
tp7361
I1
s(g4308
g4212
tp7362
I1
s(S'a'
g36
tp7363
I1
s(S'the'
p7364
g5151
tp7365
I1
s(g5964
S'texas'
p7366
tp7367
I1
s(g6329
S'very'
p7368
tp7369
I1
s(S'in'
p7370
S'physics'
p7371
tp7372
I1
s(g3119
g7138
tp7373
I1
s(g7079
g3272
tp7374
I1
s(g1997
S'monday'
p7375
tp7376
I1
s(g5288
g1617
tp7377
I1
s(g4048
g4432
tp7378
I1
s(S'the'
p7379
S'soaring'
p7380
tp7381
I1
s(S'to'
p7382
g1386
tp7383
I1
s(g1279
S'needs'
p7384
tp7385
I1
s(g7177
S'that'
p7386
tp7387
I1
s(g18
g3194
tp7388
I1
s(S'joined'
p7389
S'grover'
p7390
tp7391
I1
s(S'that'
p7392
g3657
tp7393
I1
s(g6398
g4667
tp7394
I1
s(g1603
g2297
tp7395
I1
s(g6437
g6749
tp7396
I1
s(g1245
g5850
tp7397
I1
s(S'one'
p7398
g2177
tp7399
I1
s(S'effectively'
p7400
g793
tp7401
I1
s(S'act'
p7402
g1420
tp7403
I1
s(S'sheriff'
p7404
g3222
tp7405
I1
s(S'night'
p7406
S'there'
p7407
tp7408
I2
s(S'like'
p7409
S'dallas'
p7410
tp7411
I1
s(S'development'
p7412
S'bill'
p7413
tp7414
I1
s(g2170
g1301
tp7415
I1
s(S'meet'
p7416
g7197
tp7417
I3
s(S'the'
p7418
S'jurors'
p7419
tp7420
I2
s(g6204
g542
tp7421
I1
s(g6529
S'defense'
p7422
tp7423
I1
s(g6535
S'executive'
p7424
tp7425
I1
s(g7071
g6894
tp7426
I1
s(S'general'
p7427
g2492
tp7428
I1
s(g7223
g1996
tp7429
I1
s(g5821
S'senior'
p7430
tp7431
I1
s(g6723
S'in'
p7432
tp7433
I2
s(S'the'
p7434
S'8'
tp7435
I1
s(g46
g5730
tp7436
I1
s(g2871
g5427
tp7437
I1
s(S'been'
p7438
S'brought'
p7439
tp7440
I1
s(g2234
S'clark'
p7441
tp7442
I1
s(g1939
g6401
tp7443
I1
s(g5476
S'city'
p7444
tp7445
I1
s(g1883
g7195
tp7446
I2
s(S'eight'
p7447
g2542
tp7448
I1
s(g1598
g1411
tp7449
I1
s(g3082
g6546
tp7450
I1
s(g4831
S'received'
p7451
tp7452
I1
s(S'appointee'
p7453
S'would'
p7454
tp7455
I1
s(g6750
S'told'
p7456
tp7457
I1
s(S'than'
p7458
g4344
tp7459
I1
s(S'paid'
p7460
S'for'
p7461
tp7462
I1
s(g6779
g5496
tp7463
I1
s(g6567
g3139
tp7464
I1
s(S'kennedy'
p7465
S'health'
p7466
tp7467
I1
s(g3758
S'a'
tp7468
I1
s(g325
S'that'
p7469
tp7470
I1
s(S'his'
p7471
g5333
tp7472
I1
s(g4374
S'care'
p7473
tp7474
I4
s(g6473
g6660
tp7475
I1
s(g5830
S'to'
p7476
tp7477
I1
s(g5251
S'williams'
p7478
tp7479
I1
s(S'voting'
p7480
S'itself'
p7481
tp7482
I1
s(g6241
g1348
tp7483
I1
s(g4809
g5787
tp7484
I1
s(g991
S'opposed'
p7485
tp7486
I1
s(g4770
g2870
tp7487
I2
s(S'bill'
p7488
g6870
tp7489
I1
s(g5602
S''
tp7490
I1
s(g3171
g4503
tp7491
I1
s(g6460
S'ivan'
p7492
tp7493
I1
s(g6362
g7189
tp7494
I1
s(g453
S'dallas'
p7495
tp7496
I3
s(g6252
g6169
tp7497
I1
s(S'daniel'
p7498
S'declared'
p7499
tp7500
I1
s(g606
g1635
tp7501
I1
s(S'statement'
p7502
g6140
tp7503
I1
s(S'leader'
p7504
g7039
tp7505
I1
s(S'savings'
p7506
g6377
tp7507
I1
s(S'a'
g7022
tp7508
I1
s(S'marshall'
p7509
g6769
tp7510
I1
s(S'new'
p7511
S'rural'
p7512
tp7513
I1
s(g3530
g4114
tp7514
I1
s(S'property'
p7515
g7498
tp7516
I1
s(g5444
S'of'
p7517
tp7518
I2
s(g4914
g1844
tp7519
I1
s(S'a'
S'board'
p7520
tp7521
I1
s(g5370
g4480
tp7522
I1
s(g979
S'were'
p7523
tp7524
I1
s(g4976
S'of'
p7525
tp7526
I2
s(g3325
g422
tp7527
I1
s(g5740
S'savings'
p7528
tp7529
I1
s(S'outlay'
p7530
S'of'
p7531
tp7532
I1
s(g4644
g4128
tp7533
I5
s(S'houston'
p7534
g5642
tp7535
I1
s(S'cases'
p7536
g4323
tp7537
I1
s(S'school'
p7538
g1764
tp7539
I1
s(S'tax'
p7540
g6016
tp7541
I1
s(g3677
g2314
tp7542
I1
s(S'bill'
p7543
S'the'
p7544
tp7545
I1
s(g822
g4506
tp7546
I1
s(S'amended'
p7547
g6952
tp7548
I1
s(S'about'
p7549
g7540
tp7550
I1
s(S'the'
p7551
g5695
tp7552
I1
s(g3663
g5534
tp7553
I15
s(g6255
g2484
tp7554
I1
s(S'637'
p7555
S'pelham'
p7556
tp7557
I1
s(S'day'
p7558
g419
tp7559
I1
s(S'federal'
p7560
g4001
tp7561
I1
s(g7280
g799
tp7562
I1
s(S'the'
p7563
S'most'
p7564
tp7565
I1
s(S'multimilliondollar'
p7566
g4656
tp7567
I1
s(S'by'
p7568
S'frank'
p7569
tp7570
I1
s(S'1'
S'full'
p7571
tp7572
I1
s(g6347
S'crump'
p7573
tp7574
I1
s(g180
g3355
tp7575
I1
s(g4674
g3278
tp7576
I1
s(g3188
S'and'
p7577
tp7578
I1
s(S'of'
p7579
S'those'
p7580
tp7581
I1
s(g4641
S'on'
p7582
tp7583
I1
s(g2740
S'greater'
p7584
tp7585
I1
s(g2573
S'2'
tp7586
I1
s(S'and'
p7587
g4781
tp7588
I1
s(g7523
g5649
tp7589
I1
s(S'fully'
p7590
g5494
tp7591
I1
s(g1031
g4279
tp7592
I1
s(g6318
g6155
tp7593
I1
s(S'occupation'
p7594
g6774
tp7595
I1
s(S'trouble'
p7596
g1244
tp7597
I1
s(g4677
S'connection'
p7598
tp7599
I1
s(g2417
S'he'
p7600
tp7601
I2
s(S'8'
g2363
tp7602
I1
s(S'a'
S'privilege'
p7603
tp7604
I1
s(S'the'
p7605
S'problems'
p7606
tp7607
I1
s(g2390
g506
tp7608
I1
s(S'birth'
p7609
S'as'
p7610
tp7611
I1
s(g6195
g226
tp7612
I1
s(g375
S'the'
p7613
tp7614
I1
s(g6745
g4941
tp7615
I1
s(g3584
g4592
tp7616
I2
s(g6578
g1957
tp7617
I1
s(S'texas'
p7618
g3941
tp7619
I1
s(S'do'
p7620
S'something'
p7621
tp7622
I1
s(g3336
g6925
tp7623
I1
s(g2327
S'a'
tp7624
I1
s(g6235
g4939
tp7625
I1
s(g5520
g5277
tp7626
I1
s(g3548
g4711
tp7627
I1
s(g5872
S'the'
p7628
tp7629
I1
s(g2490
g7148
tp7630
I1
s(g6283
g5771
tp7631
I1
s(S'kennedy'
p7632
g1150
tp7633
I1
s(S'hear'
p7634
S'a'
tp7635
I1
s(g1223
g1827
tp7636
I1
s(g5177
S'vote'
p7637
tp7638
I1
s(S'recommendations'
p7639
S'designed'
p7640
tp7641
I1
s(S'as'
p7642
S'74'
p7643
tp7644
I1
s(S'home'
p7645
S'for'
p7646
tp7647
I1
s(g7236
S'who'
p7648
tp7649
I1
s(g1877
S'three'
p7650
tp7651
I1
s(g5586
S'schools'
p7652
tp7653
I1
s(g6626
g1674
tp7654
I1
s(g4693
S'no'
p7655
tp7656
I1
s(S'the'
p7657
S'rural'
p7658
tp7659
I1
s(S'dewey'
p7660
g1974
tp7661
I1
s(S'asked'
p7662
S'for'
p7663
tp7664
I1
s(S'combine'
p7665
g7551
tp7666
I1
s(g1643
g3999
tp7667
I1
s(g578
S'offer'
p7668
tp7669
I1
s(S'in'
p7670
g4707
tp7671
I1
s(g5554
S'under'
p7672
tp7673
I1
s(g7067
S'enlarging'
p7674
tp7675
I1
s(g3931
S'of'
p7676
tp7677
I1
s(g2264
S'a'
tp7678
I1
s(S'of'
p7679
S'fulton'
p7680
tp7681
I1
s(g7610
g5389
tp7682
I1
s(g5497
g3518
tp7683
I1
s(g7481
S'a'
tp7684
I1
s(g721
g2739
tp7685
I1
s(S'unnecessary'
p7686
S'overcrowding'
p7687
tp7688
I1
s(g6104
g2147
tp7689
I1
s(S'resolution'
p7690
S'faces'
p7691
tp7692
I1
s(g1868
S'being'
p7693
tp7694
I1
s(g5876
g2295
tp7695
I1
s(g6985
g5560
tp7696
I1
s(g7348
g4653
tp7697
I1
s(S'for'
p7698
S'direct'
p7699
tp7700
I1
s(S'cent'
p7701
S'starting'
p7702
tp7703
I1
s(g4416
g648
tp7704
I1
s(g6342
g1527
tp7705
I1
s(S'texas'
p7706
S'supreme'
p7707
tp7708
I1
s(S'as'
p7709
g5960
tp7710
I1
s(S'saba'
p7711
g71
tp7712
I1
s(g6976
S'robert'
p7713
tp7714
I1
s(g7674
g6464
tp7715
I1
s(S'allowing'
p7716
S'more'
p7717
tp7718
I1
s(S'contracts'
p7719
S'he'
p7720
tp7721
I1
s(g6874
S'the'
p7722
tp7723
I1
s(g1516
g6777
tp7724
I1
s(S'national'
p7725
S'child'
p7726
tp7727
I1
s(g1113
g2355
tp7728
I1
s(S'30'
p7729
S'semester'
p7730
tp7731
I1
s(g3504
g2613
tp7732
I1
s(g7713
S'weaver'
p7733
tp7734
I1
s(S'the'
p7735
g5347
tp7736
I1
s(g3499
S'he'
p7737
tp7738
I1
s(g592
S'for'
p7739
tp7740
I1
s(S'for'
p7741
S'wexler'
p7742
tp7743
I1
s(g3618
g6246
tp7744
I1
s(g5535
g4439
tp7745
I2
s(S'quiet'
p7746
g3182
tp7747
I1
s(S'dollars'
p7748
S'over'
p7749
tp7750
I1
s(S'morris'
p7751
g1042
tp7752
I1
s(g1014
S'despite'
p7753
tp7754
I1
s(g5884
S'your'
p7755
tp7756
I1
s(g1897
S'the'
p7757
tp7758
I1
s(g4724
g3848
tp7759
I1
s(S'knew'
p7760
g2774
tp7761
I1
s(g7179
g5304
tp7762
I1
s(S'to'
p7763
g6815
tp7764
I1
s(S'take'
p7765
g2656
tp7766
I1
s(g2628
g3013
tp7767
I2
s(S'authority'
p7768
S'a'
tp7769
I1
s(S'has'
p7770
g5073
tp7771
I2
s(g850
g5798
tp7772
I1
s(g5907
g6279
tp7773
I1
s(S'it'
p7774
g1103
tp7775
I1
s(g3021
g1225
tp7776
I1
s(S'of'
p7777
g7596
tp7778
I2
s(S'willing'
p7779
S'to'
p7780
tp7781
I1
s(g1658
S'in'
p7782
tp7783
I1
s(S'antonio'
p7784
S'got'
p7785
tp7786
I1
s(g7451
S'the'
p7787
tp7788
I1
s(S'up'
p7789
g2669
tp7790
I1
s(g3219
S'would'
p7791
tp7792
I1
s(S'polls'
p7793
g6442
tp7794
I1
s(g4398
S'the'
p7795
tp7796
I1
s(g470
S'the'
p7797
tp7798
I1
s(g6563
g4367
tp7799
I1
s(g3404
S'in'
p7800
tp7801
I1
s(g5113
g6537
tp7802
I10
s(S'a'
S'study'
p7803
tp7804
I1
s(g7126
S'schools'
p7805
tp7806
I2
s(S'be'
p7807
S'financed'
p7808
tp7809
I1
s(g6658
g2272
tp7810
I1
s(S'the'
p7811
g4239
tp7812
I2
s(S'a'
g2581
tp7813
I2
s(S'because'
p7814
g1324
tp7815
I1
s(S'companies'
p7816
S'his'
p7817
tp7818
I1
s(S'for'
p7819
S'health'
p7820
tp7821
I1
s(g4376
g6177
tp7822
I1
s(S'jury'
p7823
S'was'
p7824
tp7825
I1
s(S'resolution'
p7826
g4565
tp7827
I1
s(g3126
g6860
tp7828
I1
s(S'methods'
p7829
g1624
tp7830
I1
s(g3255
g5623
tp7831
I1
s(g5747
g7121
tp7832
I1
s(g2367
g6696
tp7833
I1
s(g4509
S'fill'
p7834
tp7835
I1
s(S'institute'
p7836
S'asks'
p7837
tp7838
I1
s(g6475
g1247
tp7839
I1
s(g3641
S'in'
p7840
tp7841
I2
s(S'admitting'
p7842
g5883
tp7843
I1
s(g4171
g4676
tp7844
I1
s(g1571
g3703
tp7845
I1
s(S'illness'
p7846
S'the'
p7847
tp7848
I1
s(S'collins'
p7849
S'of'
p7850
tp7851
I1
s(S'house'
p7852
S'washington'
p7853
tp7854
I1
s(g6541
g1785
tp7855
I2
s(S'to'
p7856
g2951
tp7857
I1
s(g5546
S'tower'
p7858
tp7859
I1
s(g2373
g4403
tp7860
I2
s(g90
g4516
tp7861
I1
s(g6272
g4227
tp7862
I1
s(g6849
S'matching'
p7863
tp7864
I1
s(g2444
S'the'
p7865
tp7866
I1
s(S'dallas'
p7867
S'harris'
p7868
tp7869
I1
s(S'insurance'
p7870
S'halleck'
p7871
tp7872
I1
s(S'about'
p7873
g2757
tp7874
I1
s(g4695
g6523
tp7875
I1
s(S'received'
p7876
S'a'
tp7877
I1
s(S'bar'
p7878
g5054
tp7879
I1
s(g4188
S'they'
p7880
tp7881
I1
s(g6556
S'the'
p7882
tp7883
I3
s(g6456
S'a'
tp7884
I7
s(g1499
S'that'
p7885
tp7886
I1
s(g6407
g7310
tp7887
I1
s(S'expects'
p7888
S'to'
p7889
tp7890
I1
s(g5549
g3008
tp7891
I1
s(g2587
g3327
tp7892
I1
s(g3939
S'with'
p7893
tp7894
I1
s(g6843
g60
tp7895
I1
s(S'of'
p7896
g5102
tp7897
I1
s(S'sending'
p7898
S'it'
p7899
tp7900
I1
s(S'to'
p7901
S'adc'
p7902
tp7903
I1
s(g2672
g6364
tp7904
I2
s(S'people'
p7905
g5469
tp7906
I1
s(S'for'
p7907
g6029
tp7908
I1
s(g1157
g4790
tp7909
I1
s(S'other'
p7910
S'social'
p7911
tp7912
I1
s(S'monday'
p7913
g5431
tp7914
I1
s(S'a'
S'senate'
p7915
tp7916
I1
s(S'first'
p7917
g6842
tp7918
I1
s(g5892
g7225
tp7919
I1
s(S'home'
p7920
g3098
tp7921
I1
s(g411
g5254
tp7922
I1
s(g6486
g2214
tp7923
I1
s(S'an'
p7924
g7846
tp7925
I1
s(g6014
S'eight'
p7926
tp7927
I1
s(g871
g5224
tp7928
I1
s(g2921
S'pelham'
p7929
tp7930
I1
s(S'massachusetts'
p7931
S'institute'
p7932
tp7933
I1
s(g2743
S'million'
p7934
tp7935
I1
s(g3165
S'a'
tp7936
I1
s(g1730
S'recipients'
p7937
tp7938
I1
s(g531
g5145
tp7939
I1
s(S'tax'
p7940
S'to'
p7941
tp7942
I1
s(g5103
g7907
tp7943
I2
s(S'force'
p7944
g3513
tp7945
I2
s(S"mayor's"
p7946
S'attorney'
p7947
tp7948
I1
s(g4401
g5658
tp7949
I1
s(g3903
g274
tp7950
I1
s(S'bond'
p7951
S'issue'
p7952
tp7953
I2
s(g4519
g7587
tp7954
I1
s(g4973
g5227
tp7955
I1
s(g6993
g2768
tp7956
I1
s(g2051
S'at'
p7957
tp7958
I1
s(g398
g1213
tp7959
I1
s(g7319
S'he'
p7960
tp7961
I1
s(g7117
g5891
tp7962
I1
s(g3643
g1591
tp7963
I1
s(S'proposal'
p7964
S'paris'
p7965
tp7966
I1
s(S'new'
p7967
g512
tp7968
I1
s(g5862
S'federal'
p7969
tp7970
I1
s(S'bellwood'
p7971
g3877
tp7972
I1
s(g5805
S'along'
p7973
tp7974
I1
s(g2514
g6703
tp7975
I1
s(g3465
S'of'
p7976
tp7977
I5
s(g7606
g6070
tp7978
I1
s(g938
g3209
tp7979
I1
s(g2560
S'hot'
p7980
tp7981
I1
s(g7243
g3190
tp7982
I1
s(g1999
g4616
tp7983
I1
s(g4280
g4650
tp7984
I1
s(g3422
g6026
tp7985
I1
s(g3065
g7181
tp7986
I1
s(g257
g7370
tp7987
I1
s(g4385
S'clark'
p7988
tp7989
I1
s(g7929
S'will'
p7990
tp7991
I1
s(g3134
S'will'
p7992
tp7993
I1
s(S'solve'
p7994
g7605
tp7995
I1
s(S'polls'
p7996
g2041
tp7997
I1
s(S'efficiency'
p7998
g4493
tp7999
I1
s(S'unspecified'
p8000
g2819
tp8001
I1
s(g4632
S'equal'
p8002
tp8003
I1
s(g2527
g4975
tp8004
I1
s(S'commented'
p8005
g34
tp8006
I2
s(g7569
S'owen'
p8007
tp8008
I1
s(g3906
g5976
tp8009
I1
s(g2339
S'hamlet'
p8010
tp8011
I1
s(S'assistant'
p8012
S'more'
p8013
tp8014
I1
s(S'tax'
p8015
S'is'
p8016
tp8017
I1
s(g4201
g4071
tp8018
I1
s(g5720
S'of'
p8019
tp8020
I1
s(S'capital'
p8021
g7530
tp8022
I1
s(g762
g1361
tp8023
I1
s(g880
S'to'
p8024
tp8025
I1
s(S'these'
p8026
S'two'
p8027
tp8028
I1
s(S'revolving'
p8029
g3599
tp8030
I2
s(S'can'
p8031
S'be'
p8032
tp8033
I1
s(S'drop'
p8034
S'of'
p8035
tp8036
I1
s(g3815
g354
tp8037
I1
s(S'to'
p8038
S'vote'
p8039
tp8040
I1
s(g7582
g6614
tp8041
I1
s(g6153
g626
tp8042
I1
s(g3144
g5259
tp8043
I4
s(g6950
g5051
tp8044
I1
s(g2812
S'sunday'
p8045
tp8046
I1
s(S'his'
p8047
g6756
tp8048
I1
s(g7805
g657
tp8049
I1
s(g7209
g1024
tp8050
I1
s(S'veiled'
p8051
S'effort'
p8052
tp8053
I1
s(g216
S"mayor's"
p8054
tp8055
I3
s(g2287
g1767
tp8056
I1
s(g6215
g4947
tp8057
I1
s(S'further'
p8058
S'delay'
p8059
tp8060
I1
s(S'proposals'
p8061
g7665
tp8062
I1
s(g3430
g923
tp8063
I1
s(g4823
S'support'
p8064
tp8065
I1
s(S'the'
p8066
g5122
tp8067
I1
s(g4185
g5261
tp8068
I1
s(g4991
S'and'
p8069
tp8070
I1
s(g2464
g7971
tp8071
I1
s(S'fine'
p8072
g6344
tp8073
I1
s(g3743
S'vote'
p8074
tp8075
I1
s(g8016
g6517
tp8076
I1
s(g5932
g890
tp8077
I13
s(S'employed'
p8078
S'at'
p8079
tp8080
I1
s(S'said'
p8081
S'failure'
p8082
tp8083
I1
s(g777
S'and'
p8084
tp8085
I1
s(S'amendment'
p8086
S'should'
p8087
tp8088
I1
s(S'be'
p8089
g4312
tp8090
I1
s(g4964
S'of'
p8091
tp8092
I1
s(S'fund'
p8093
g4931
tp8094
I1
s(S'house'
p8095
g2200
tp8096
I2
s(S'test'
p8097
g2923
tp8098
I1
s(S'of'
p8099
g2962
tp8100
I1
s(S'breakdown'
p8101
S'desertion'
p8102
tp8103
I1
s(g6488
g2651
tp8104
I6
s(g747
S'to'
p8105
tp8106
I1
s(g5232
S'washington'
p8107
tp8108
I1
s(g658
S'from'
p8109
tp8110
I1
s(S'to'
p8111
g7416
tp8112
I4
s(g7791
g3868
tp8113
I1
s(g7621
S'to'
p8114
tp8115
I1
s(g6147
g7163
tp8116
I1
s(g5982
S'or'
p8117
tp8118
I1
s(g4452
g7549
tp8119
I1
s(S'said'
p8120
g5034
tp8121
I1
s(g7973
g1950
tp8122
I1
s(g4100
g5405
tp8123
I1
s(S'bonds'
p8124
g125
tp8125
I1
s(g2458
S'railroad'
p8126
tp8127
I1
s(S'and'
p8128
g2551
tp8129
I1
s(S'said'
p8130
g1391
tp8131
I1
s(g3574
g4528
tp8132
I1
s(g3969
S'in'
p8133
tp8134
I1
s(S'bill'
p8135
S'said'
p8136
tp8137
I2
s(S'face'
p8138
S'is'
p8139
tp8140
I1
s(S'make'
p8141
g6159
tp8142
I1
s(S'and'
p8143
g1129
tp8144
I1
s(S'a'
S'swipe'
p8145
tp8146
I1
s(g4139
g7005
tp8147
I1
s(g6098
S'when'
p8148
tp8149
I1
s(g5432
g7560
tp8150
I1
s(g1412
g571
tp8151
I1
s(g7218
g5768
tp8152
I1
s(g3850
g4723
tp8153
I1
s(g7990
g569
tp8154
I1
s(g2160
S'program'
p8155
tp8156
I2
s(S'the'
p8157
g3550
tp8158
I1
s(g6264
g6453
tp8159
I1
s(g6068
g5928
tp8160
I1
s(g6947
g6083
tp8161
I1
s(g4542
g2598
tp8162
I1
s(g7461
S'out'
p8163
tp8164
I1
s(S'pay'
p8165
S'a'
tp8166
I2
s(g3062
S'before'
p8167
tp8168
I1
s(S'more'
p8169
g6469
tp8170
I1
s(g1698
S'james'
p8171
tp8172
I1
s(S'for'
p8173
g4307
tp8174
I1
s(S'1'
S'five'
p8175
tp8176
I1
s(g3510
g1660
tp8177
I1
s(S'also'
p8178
g539
tp8179
I1
s(g7469
S'georgia'
p8180
tp8181
I1
s(g165
S'would'
p8182
tp8183
I1
s(S'the'
p8184
S'jail'
p8185
tp8186
I1
s(S'a'
S'mighty'
p8187
tp8188
I1
s(g5769
g3706
tp8189
I1
s(S'committee'
p8190
S'the'
p8191
tp8192
I1
s(S'realize'
p8193
S'a'
tp8194
I1
s(g1586
S'the'
p8195
tp8196
I1
s(S'some'
p8197
S'3'
tp8198
I1
s(g8148
g3212
tp8199
I2
s(S'san'
p8200
g7784
tp8201
I1
s(g108
S'state'
p8202
tp8203
I1
s(g5291
g6539
tp8204
I2
s(g2132
S'would'
p8205
tp8206
I3
s(S'criminal'
p8207
S'court'
p8208
tp8209
I3
s(S'a'
g2575
tp8210
I2
s(S'the'
p8211
g6795
tp8212
I2
s(g328
S'in'
p8213
tp8214
I1
s(g4305
g5993
tp8215
I1
s(g7311
g2134
tp8216
I1
s(S'questioned'
p8217
S'the'
p8218
tp8219
I1
s(g1747
S'the'
p8220
tp8221
I1
s(S'coming'
p8222
S'to'
p8223
tp8224
I1
s(g1741
g6797
tp8225
I5
s(g2728
g5195
tp8226
I1
s(S'from'
p8227
g2953
tp8228
I1
s(g3108
g5732
tp8229
I3
s(g5565
g8038
tp8230
I1
s(g927
S'have'
p8231
tp8232
I1
s(g2772
g4083
tp8233
I2
s(S'employes'
p8234
S'the'
p8235
tp8236
I1
s(S'into'
p8237
g3760
tp8238
I1
s(g6351
g7008
tp8239
I1
s(S'get'
p8240
S'to'
p8241
tp8242
I1
s(g6619
g8207
tp8243
I1
s(g1302
g2654
tp8244
I2
s(g7988
S'was'
p8245
tp8246
I1
s(S'septemberoctober'
p8247
S'term'
p8248
tp8249
I1
s(S'a'
g3483
tp8250
I1
s(g1537
S'dentistry'
p8251
tp8252
I1
s(g3481
g104
tp8253
I1
s(g5386
g3783
tp8254
I1
s(S'heavily'
p8255
g2263
tp8256
I1
s(g4207
g4254
tp8257
I1
s(g5745
g3917
tp8258
I1
s(g4471
g2830
tp8259
I1
s(S'parsons'
p8260
g6374
tp8261
I1
s(g1359
S'research'
p8262
tp8263
I1
s(S'plan'
p8264
S'enacted'
p8265
tp8266
I1
s(S'recommend'
p8267
S'passage'
p8268
tp8269
I1
s(g3462
g4209
tp8270
I1
s(S'tuesday'
p8271
g7233
tp8272
I1
s(S'teachers'
p8273
S'to'
p8274
tp8275
I1
s(g6431
S'a'
tp8276
I1
s(g5764
g7159
tp8277
I1
s(g8175
S'per'
p8278
tp8279
I1
s(S'have'
p8280
g4421
tp8281
I1
s(S'by'
p8282
S'several'
p8283
tp8284
I1
s(S'the'
p8285
g1250
tp8286
I2
s(S'house'
p8287
g5511
tp8288
I1
s(g2989
S'asked'
p8289
tp8290
I1
s(g6470
S'in'
p8291
tp8292
I1
s(g55
g3506
tp8293
I2
s(g3983
S'all'
p8294
tp8295
I1
s(S'of'
p8296
g6981
tp8297
I1
s(g5035
S'obtained'
p8298
tp8299
I1
s(g5886
S'under'
p8300
tp8301
I1
s(g5543
S'as'
p8302
tp8303
I1
s(g4072
S'a'
tp8304
I2
s(g4219
g1175
tp8305
I1
s(g3339
g1159
tp8306
I1
s(S'recommended'
p8307
g1485
tp8308
I1
s(g6670
g6271
tp8309
I1
s(g4560
g7924
tp8310
I1
s(S'state'
p8311
g1873
tp8312
I1
s(g724
g5284
tp8313
I1
s(g6294
g1135
tp8314
I1
s(g7808
g188
tp8315
I1
s(g5865
S'2'
tp8316
I1
s(g1786
g6887
tp8317
I1
s(g6606
g5436
tp8318
I1
s(S'called'
p8319
g1582
tp8320
I2
s(g1310
g5478
tp8321
I1
s(S'seven'
p8322
g3247
tp8323
I3
s(g7215
g8200
tp8324
I1
s(g6051
g896
tp8325
I2
s(g7413
g5501
tp8326
I2
s(g2204
S'in'
p8327
tp8328
I1
s(g7525
g7145
tp8329
I1
s(S'year'
p8330
g5354
tp8331
I1
s(g5193
g6600
tp8332
I1
s(g8268
S'of'
p8333
tp8334
I1
s(S'a'
g7506
tp8335
I1
s(g8180
g232
tp8336
I1
s(S'increase'
p8337
S'grants'
p8338
tp8339
I1
s(g1762
S'told'
p8340
tp8341
I1
s(g4091
g7547
tp8342
I1
s(S'did'
p8343
S'say'
p8344
tp8345
I1
s(g2718
g6323
tp8346
I1
s(g5138
S'denied'
p8347
tp8348
I1
s(S'legislators'
p8349
g1677
tp8350
I1
s(g4364
g5739
tp8351
I1
s(g438
g5945
tp8352
I1
s(g7012
g3843
tp8353
I1
s(S'a'
g386
tp8354
I1
s(g7980
g5841
tp8355
I1
s(g3770
S'republicans'
p8356
tp8357
I1
s(g2120
S'sign'
p8358
tp8359
I1
s(S'the'
p8360
g5875
tp8361
I1
s(S'and'
p8362
S'20'
p8363
tp8364
I1
s(g49
S'at'
p8365
tp8366
I1
s(g7573
g6504
tp8367
I1
s(S'paris'
p8368
S'junior'
p8369
tp8370
I1
s(g2439
S'barber'
p8371
tp8372
I1
s(g7357
g5425
tp8373
I1
s(S'lost'
p8374
S'to'
p8375
tp8376
I1
s(g6425
g7172
tp8377
I1
s(g7691
g5610
tp8378
I1
s(g5750
S'pipeline'
p8379
tp8380
I1
s(S'given'
p8381
g5337
tp8382
I1
s(S'legislation'
p8383
g4893
tp8384
I1
s(g275
g8307
tp8385
I1
s(g7650
S'on'
p8386
tp8387
I1
s(g3478
g6649
tp8388
I7
s(S'each'
p8389
g2119
tp8390
I1
s(g102
g6572
tp8391
I1
s(g3416
g1791
tp8392
I1
s(S'administration'
p8393
S'the'
p8394
tp8395
I1
s(g5868
S'precinct'
p8396
tp8397
I1
s(g1136
S'the'
p8398
tp8399
I1
s(g522
g2715
tp8400
I1
s(g4129
S'committee'
p8401
tp8402
I2
s(g1486
g4726
tp8403
I1
s(S'taken'
p8404
g8227
tp8405
I1
s(g6444
g4618
tp8406
I2
s(g5074
S'teacher'
p8407
tp8408
I2
s(g6532
g7427
tp8409
I1
s(S'to'
p8410
S'180'
p8411
tp8412
I1
s(g4259
g3852
tp8413
I1
s(S'family'
p8414
S'breakups'
p8415
tp8416
I1
s(g1862
g1364
tp8417
I1
s(S'college'
p8418
S'he'
p8419
tp8420
I1
s(S'work'
p8421
g6341
tp8422
I1
s(S'pay'
p8423
g6912
tp8424
I1
s(S'bureau'
p8425
S'he'
p8426
tp8427
I1
s(g5839
g5812
tp8428
I1
s(S'grover'
p8429
g3620
tp8430
I1
s(g3024
g2985
tp8431
I1
s(g7062
S'a'
tp8432
I1
s(S'a'
g7231
tp8433
I1
s(g6582
g5690
tp8434
I1
s(g4079
g3338
tp8435
I1
s(g8251
S'because'
p8436
tp8437
I1
s(S'other'
p8438
g6480
tp8439
I1
s(S'to'
p8440
g5564
tp8441
I1
s(g6094
g2455
tp8442
I1
s(S'bill'
p8443
S'by'
p8444
tp8445
I3
s(g1398
g5317
tp8446
I1
s(S'to'
p8447
g4412
tp8448
I3
s(g7652
S'as'
p8449
tp8450
I1
s(g6593
S'from'
p8451
tp8452
I1
s(S'payment'
p8453
g7896
tp8454
I2
s(S'a'
g467
tp8455
I1
s(S'than'
p8456
S'a'
tp8457
I1
s(g4841
S'dallas'
p8458
tp8459
I1
s(g5378
g2109
tp8460
I1
s(g912
S'to'
p8461
tp8462
I1
s(g4115
g5118
tp8463
I1
s(g2608
S'in'
p8464
tp8465
I1
s(S'said'
p8466
S'that'
p8467
tp8468
I4
s(g785
g6217
tp8469
I1
s(g4136
g95
tp8470
I1
s(g6163
g7746
tp8471
I1
s(g3909
S'to'
p8472
tp8473
I1
s(g1104
g3501
tp8474
I1
s(g5162
S'for'
p8475
tp8476
I1
s(g7128
S'something'
p8477
tp8478
I1
s(S'populous'
p8479
S'places'
p8480
tp8481
I1
s(g6526
S'day'
p8482
tp8483
I1
s(g1765
S'the'
p8484
tp8485
I1
s(S'the'
p8486
g3524
tp8487
I1
s(S'who'
p8488
S'has'
p8489
tp8490
I2
s(S'under'
p8491
S'white'
p8492
tp8493
I1
s(g7085
g425
tp8494
I1
s(g3372
g7222
tp8495
I1
s(g7332
g2855
tp8496
I1
s(g2284
g2529
tp8497
I1
s(g1636
g1228
tp8498
I1
s(S'and'
p8499
S'grants'
p8500
tp8501
I1
s(S'is'
p8502
S'being'
p8503
tp8504
I1
s(S"can't"
p8505
g849
tp8506
I1
s(g6708
g8021
tp8507
I1
s(g5685
g229
tp8508
I1
s(g1789
S'said'
p8509
tp8510
I1
s(S'why'
p8511
g5099
tp8512
I1
s(g3319
g1594
tp8513
I1
s(S'kennedy'
p8514
g1077
tp8515
I2
s(S'jury'
p8516
g711
tp8517
I1
s(g2195
S'issue'
p8518
tp8519
I1
s(g1442
S'white'
p8520
tp8521
I1
s(g1454
S'by'
p8522
tp8523
I1
s(S'time'
p8524
S'of'
p8525
tp8526
I1
s(g6635
S'ambitious'
p8527
tp8528
I1
s(g7048
g8143
tp8529
I1
s(S'texas'
p8530
g1138
tp8531
I1
s(S'a'
S'blue'
p8532
tp8533
I1
s(g2766
g339
tp8534
I1
s(S'person'
p8535
S'with'
p8536
tp8537
I1
s(S'most'
p8538
g8255
tp8539
I1
s(g4198
S'medical'
p8540
tp8541
I1
s(g4088
S'other'
p8542
tp8543
I3
s(g549
S'high'
p8544
tp8545
I1
s(g3878
g39
tp8546
I1
s(g4935
g7297
tp8547
I1
s(g6827
g7050
tp8548
I1
s(g7164
S'armed'
p8549
tp8550
I1
s(g3306
S'republican'
p8551
tp8552
I1
s(g8245
g6050
tp8553
I1
s(S'an'
p8554
g1915
tp8555
I1
s(g7858
S'will'
p8556
tp8557
I1
s(S'and'
p8558
g7299
tp8559
I1
s(S'increase'
p8560
g7247
tp8561
I1
s(S'the'
p8562
S'aid'
p8563
tp8564
I1
s(S'state'
p8565
g4604
tp8566
I1
s(S'security'
p8567
g5825
tp8568
I2
s(S'a'
S'poor'
p8569
tp8570
I1
s(g5130
g7729
tp8571
I1
s(g5572
S'the'
p8572
tp8573
I1
s(g4149
g8499
tp8574
I1
s(S'house'
p8575
g5085
tp8576
I1
s(g7780
g3390
tp8577
I1
s(g1075
g3333
tp8578
I1
s(S'a'
g3871
tp8579
I1
s(S'apparently'
p8580
S'made'
p8581
tp8582
I1
s(S'a'
g8535
tp8583
I1
s(S'allen'
p8584
S'only'
p8585
tp8586
I1
s(g5413
g5553
tp8587
I1
s(g2618
S'of'
p8588
tp8589
I1
s(S'the'
p8590
g2912
tp8591
I1
s(g8145
S'at'
p8592
tp8593
I1
s(S'reelection'
p8594
g7041
tp8595
I1
s(S'today'
p8596
S'proposed'
p8597
tp8598
I1
s(S'case'
p8599
S'there'
p8600
tp8601
I1
s(g8527
S'and'
p8602
tp8603
I1
s(g2856
S'a'
tp8604
I1
s(S'rejection'
p8605
S'by'
p8606
tp8607
I1
s(g3918
g2513
tp8608
I1
s(S'9th'
p8609
S'precinct'
p8610
tp8611
I1
s(g4302
g8343
tp8612
I1
s(S'on'
p8613
S'each'
p8614
tp8615
I1
s(S'a'
g3527
tp8616
I1
s(S'the'
p8617
g8609
tp8618
I1
s(g6680
S'on'
p8619
tp8620
I1
s(g6481
g5240
tp8621
I1
s(S'summerdale'
p8622
g7161
tp8623
I1
s(g1649
S'and'
p8624
tp8625
I1
s(g888
S'by'
p8626
tp8627
I1
s(g7556
g7273
tp8628
I1
s(S'state'
p8629
g1367
tp8630
I1
s(S'the'
p8631
g7002
tp8632
I1
s(g8248
S'jury'
p8633
tp8634
I1
s(g5529
g2206
tp8635
I1
s(g7947
g6276
tp8636
I1
s(g4419
g4952
tp8637
I1
s(S'for'
p8638
g8414
tp8639
I1
s(g8265
S'last'
p8640
tp8641
I1
s(g1130
g4609
tp8642
I1
s(g1293
g7719
tp8643
I1
s(g4818
g8157
tp8644
I1
s(g5358
g6266
tp8645
I1
s(S'a'
S'separate'
p8646
tp8647
I1
s(g7054
g864
tp8648
I1
s(g3006
g4718
tp8649
I1
s(g2393
g3732
tp8650
I1
s(g5813
S'nursing'
p8651
tp8652
I2
s(g8602
g6011
tp8653
I1
s(g4463
g7404
tp8654
I1
s(S'go'
p8655
g7789
tp8656
I2
s(g6375
g4300
tp8657
I2
s(S'complementary'
p8658
g4918
tp8659
I1
s(S'joe'
p8660
g5693
tp8661
I1
s(S'per'
p8662
g7558
tp8663
I1
s(g8294
S'the'
p8664
tp8665
I1
s(g6202
S'with'
p8666
tp8667
I1
s(g8581
S'good'
p8668
tp8669
I1
s(g2069
g5045
tp8670
I1
s(g7584
g7998
tp8671
I1
s(S'in'
p8672
g8389
tp8673
I1
s(g3957
S'thursday'
p8674
tp8675
I1
s(g6390
g5005
tp8676
I1
s(g8002
g1966
tp8677
I1
s(g4162
g8240
tp8678
I1
s(g2201
g5403
tp8679
I1
s(S'the'
p8680
g2007
tp8681
I1
s(g513
g3308
tp8682
I1
s(S'other'
p8683
S'bill'
p8684
tp8685
I1
s(g2071
g7113
tp8686
I1
s(S'opponents'
p8687
g984
tp8688
I1
s(g4599
S'of'
p8689
tp8690
I1
s(S'44'
p8691
S'million'
p8692
tp8693
I1
s(S'state'
p8694
S'had'
p8695
tp8696
I1
s(g2927
S'been'
p8697
tp8698
I6
s(S'cent'
p8699
S'each'
p8700
tp8701
I1
s(g4761
g7823
tp8702
I1
s(g1836
S'house'
p8703
tp8704
I1
s(g6111
g259
tp8705
I2
s(g8241
g7634
tp8706
I2
s(g7366
S'was'
p8707
tp8708
I1
s(g8187
g8072
tp8709
I1
s(g3131
S'be'
p8710
tp8711
I1
s(g3718
S'of'
p8712
tp8713
I2
s(g5675
S'a'
tp8714
I1
s(g3895
S'received'
p8715
tp8716
I1
s(g8107
g1164
tp8717
I1
s(g5605
S'i'
tp8718
I1
s(S'the'
p8719
S'judges'
p8720
tp8721
I1
s(g6846
g4460
tp8722
I1
s(g7390
S'as'
p8723
tp8724
I1
s(g8356
g827
tp8725
I1
s(g5204
g6066
tp8726
I1
s(g1992
g3555
tp8727
I1
s(g7499
g7660
tp8728
I1
s(g96
g5903
tp8729
I1
s(g1675
S'were'
p8730
tp8731
I1
s(g395
g5157
tp8732
I1
s(S'statements'
p8733
g7842
tp8734
I1
s(g6370
g8425
tp8735
I1
s(S'24'
p8736
S'semester'
p8737
tp8738
I1
s(g5273
S'establishment'
p8739
tp8740
I2
s(g4216
g303
tp8741
I1
s(g7082
g7849
tp8742
I1
s(g2309
g1761
tp8743
I1
s(g2306
g8031
tp8744
I1
s(g5275
g4173
tp8745
I1
s(g8464
g887
tp8746
I1
s(g7006
g4382
tp8747
I1
s(g8477
g7307
tp8748
I1
s(g7419
g3379
tp8749
I2
s(g993
g170
tp8750
I1
s(g6704
S'local'
p8751
tp8752
I1
s(g7198
S'berlin'
p8753
tp8754
I1
s(g3264
g4995
tp8755
I1
s(g2878
S'freedom'
p8756
tp8757
I1
s(g7124
g5598
tp8758
I1
s(g8549
S'with'
p8759
tp8760
I1
s(g8347
g1465
tp8761
I1
s(g12
g3048
tp8762
I1
s(g1232
g8514
tp8763
I3
s(g4978
g7453
tp8764
I1
s(g5025
g3649
tp8765
I1
s(g2107
g4235
tp8766
I1
s(S'state'
p8767
g2460
tp8768
I1
s(g8518
g7043
tp8769
I1
s(S'from'
p8770
S'texas'
p8771
tp8772
I1
s(g1133
g3623
tp8773
I1
s(g727
S'parkhouse'
p8774
tp8775
I2
s(g6644
g7081
tp8776
I1
s(g8715
g4078
tp8777
I1
s(S'program'
p8778
S'to'
p8779
tp8780
I1
s(S'his'
p8781
g8061
tp8782
I1
s(g2853
g1080
tp8783
I1
s(S'the'
p8784
g8622
tp8785
I1
s(g7046
g6053
tp8786
I1
s(g2941
g7228
tp8787
I1
s(g7733
S'as'
p8788
tp8789
I1
s(S'that'
p8790
g8058
tp8791
I1
s(g4233
g140
tp8792
I1
s(S'the'
p8793
g2712
tp8794
I1
s(g5618
g3925
tp8795
I1
s(g6919
g8066
tp8796
I1
s(g2353
g8658
tp8797
I1
s(S'our'
p8798
g503
tp8799
I1
s(g7817
g3060
tp8800
I1
s(g1284
S'of'
p8801
tp8802
I1
s(g7824
S'out'
p8803
tp8804
I1
s(g4045
S'representing'
p8805
tp8806
I1
s(g4121
g7053
tp8807
I1
s(S'exception'
p8808
g7679
tp8809
I2
s(S'to'
p8810
g4559
tp8811
I1
s(g8032
g5526
tp8812
I1
s(g8697
S'under'
p8813
tp8814
I1
s(S'the'
p8815
g437
tp8816
I1
s(g3245
S'however'
p8817
tp8818
I1
s(g5984
S'generally'
p8819
tp8820
I1
s(g6130
g3002
tp8821
I1
s(g3079
g5900
tp8822
I1
s(S'the'
p8823
g6226
tp8824
I1
s(g1964
g3415
tp8825
I1
s(g802
g6237
tp8826
I1
s(g352
S'reported'
p8827
tp8828
I1
s(S'a'
g1216
tp8829
I1
s(g7190
S'cotten'
p8830
tp8831
I1
s(g3452
g5365
tp8832
I1
s(S'receive'
p8833
S'up'
p8834
tp8835
I1
s(g1491
g3128
tp8836
I1
s(S'a'
g7208
tp8837
I1
s(g3380
g8193
tp8838
I1
s(g6544
S'candidates'
p8839
tp8840
I1
s(S'millions'
p8841
g3804
tp8842
I1
s(g3836
g1394
tp8843
I1
s(g5363
S'federal'
p8844
tp8845
I1
s(S'this'
p8846
g8599
tp8847
I1
s(S'all'
p8848
g3448
tp8849
I1
s(S'a'
g4454
tp8850
I1
s(S'the'
p8851
g926
tp8852
I1
s(g6521
S'districts'
p8853
tp8854
I1
s(S'paso'
p8855
g4062
tp8856
I1
s(g3800
g5716
tp8857
I1
s(S'composed'
p8858
S'of'
p8859
tp8860
I1
s(S'i'
g7166
tp8861
I1
s(S'el'
p8862
g4772
tp8863
I2
s(S'is'
p8864
g98
tp8865
I1
s(S'a'
g5633
tp8866
I1
s(g8592
g6807
tp8867
I11
s(S'50'
p8868
S'persons'
p8869
tp8870
I1
s(S'the'
p8871
g952
tp8872
I1
s(g2667
g8282
tp8873
I1
s(g1251
S'of'
p8874
tp8875
I4
s(S'as'
p8876
S'the'
p8877
tp8878
I5
s(g5987
g6787
tp8879
I1
s(g7422
g7326
tp8880
I1
s(g8606
S'two'
p8881
tp8882
I1
s(g5262
g8871
tp8883
I2
s(g1540
g7774
tp8884
I1
s(g2804
S'legislators'
p8885
tp8886
I2
s(g4950
g5168
tp8887
I1
s(g3099
g7555
tp8888
I1
s(S'instead'
p8889
g6317
tp8890
I1
s(S'atlanta'
p8891
g7878
tp8892
I1
s(g6808
g5164
tp8893
I2
s(g5128
g283
tp8894
I1
s(S'go'
p8895
g6257
tp8896
I1
s(S'expense'
p8897
g2419
tp8898
I1
s(g5408
S'grant'
p8899
tp8900
I1
s(g3484
g8271
tp8901
I1
s(S'state'
p8902
g852
tp8903
I1
s(S'4'
S'million'
p8904
tp8905
I1
s(g5589
S'in'
p8906
tp8907
I1
s(g8869
S'he'
p8908
tp8909
I1
s(g2775
g7270
tp8910
I1
s(S'is'
p8911
g605
tp8912
I2
s(S'charged'
p8913
S'by'
p8914
tp8915
I1
s(g8371
g218
tp8916
I1
s(S'said'
p8917
S'many'
p8918
tp8919
I1
s(g2901
S'said'
p8920
tp8921
I1
s(g1086
g7920
tp8922
I1
s(g5462
g6412
tp8923
I1
s(g2963
g3441
tp8924
I1
s(g7226
g8864
tp8925
I3
s(g3495
g8322
tp8926
I1
s(g1903
g6510
tp8927
I1
s(g3216
g6282
tp8928
I1
s(g3361
g6240
tp8929
I1
s(g5894
S'for'
p8930
tp8931
I1
s(S'galveston'
p8932
S'authorizing'
p8933
tp8934
I1
s(g8054
g7594
tp8935
I1
s(g6038
g5392
tp8936
I1
s(S'give'
p8937
S'it'
p8938
tp8939
I1
s(g8813
g5596
tp8940
I1
s(g6736
S'had'
p8941
tp8942
I1
s(g3631
g2434
tp8943
I1
s(g3900
g2186
tp8944
I1
s(g2815
g3491
tp8945
I1
s(g6332
S'to'
p8946
tp8947
I1
s(g1238
S'session'
p8948
tp8949
I1
s(S'take'
p8950
g7100
tp8951
I1
s(g2924
S'of'
p8952
tp8953
I1
s(g2350
S'increase'
p8954
tp8955
I1
s(g4721
g4111
tp8956
I1
s(g8542
S'personal'
p8957
tp8958
I1
s(g874
S'the'
p8959
tp8960
I1
s(g5338
S'the'
p8961
tp8962
I1
s(S'of'
p8963
g1193
tp8964
I1
s(S'a'
g5079
tp8965
I1
s(g2710
g4597
tp8966
I1
s(g995
g6110
tp8967
I2
s(g8133
g8530
tp8968
I1
s(S'funds'
p8969
g6056
tp8970
I1
s(g7338
g4179
tp8971
I3
s(g7322
S'one'
p8972
tp8973
I1
s(S'the'
p8974
S'address'
p8975
tp8976
I3
s(g343
g2137
tp8977
I1
s(S'hospital'
p8978
g5038
tp8979
I1
s(S'for'
p8980
S'trial'
p8981
tp8982
I1
s(g7028
g4828
tp8983
I1
s(S'the'
p8984
g7447
tp8985
I1
s(g1727
S'a'
tp8986
I8
s(g6198
g4753
tp8987
I1
s(S'set'
p8988
g1417
tp8989
I1
s(g6789
S'to'
p8990
tp8991
I1
s(S'the'
p8992
g6853
tp8993
I8
s(g7600
g4340
tp8994
I1
s(S'deal'
p8995
g7400
tp8996
I1
s(g8544
g8273
tp8997
I1
s(S'texas'
p8998
g3509
tp8999
I2
s(g378
g4993
tp9000
I1
s(S'ballot'
p9001
g1926
tp9002
I1
s(g2014
g2837
tp9003
I1
s(g5881
S'this'
p9004
tp9005
I1
s(g6712
g8605
tp9006
I1
s(g7380
g1450
tp9007
I1
s(g6726
g8672
tp9008
I1
s(S'1000'
p9009
S'fine'
p9010
tp9011
I1
s(g8289
g2730
tp9012
I1
s(g8411
g4980
tp9013
I1
s(g1609
g3762
tp9014
I1
s(g3667
g3293
tp9015
I1
s(g649
S'karns'
p9016
tp9017
I1
s(S'has'
p9018
S'seen'
p9019
tp9020
I1
s(g4593
S'a'
tp9021
I2
s(g791
g5725
tp9022
I1
s(S'recommended'
p9023
g2803
tp9024
I3
s(g6603
g6918
tp9025
I1
s(g5540
g8287
tp9026
I1
s(S'current'
p9027
S'fiscal'
p9028
tp9029
I1
s(g2405
g1711
tp9030
I1
s(g8532
g6714
tp9031
I1
s(g7643
g8128
tp9032
I1
s(g2555
g3576
tp9033
I1
s(S'to'
p9034
g8337
tp9035
I1
s(g8283
S'bankers'
p9036
tp9037
I1
s(S'paid'
p9038
S'by'
p9039
tp9040
I1
s(S'a'
g1100
tp9041
I1
s(g5328
S'50'
p9042
tp9043
I1
s(S'in'
p9044
g2086
tp9045
I1
s(g8415
S'leading'
p9046
tp9047
I1
s(g6493
g1273
tp9048
I1
s(g7837
g5208
tp9049
I1
s(g4877
g7106
tp9050
I1
s(g6513
g679
tp9051
I1
s(g2535
g8234
tp9052
I1
s(g2221
g4567
tp9053
I1
s(S'24'
p9054
g6881
tp9055
I1
s(S'election'
p9056
g5293
tp9057
I1
s(S'a'
g8034
tp9058
I1
s(g3358
g3846
tp9059
I1
s(S'texas'
p9060
S'high'
p9061
tp9062
I1
s(g7213
S'the'
p9063
tp9064
I1
s(g2322
g2534
tp9065
I1
s(g2138
g8222
tp9066
I1
s(S'they'
p9067
g8505
tp9068
I1
s(g278
S'age'
p9069
tp9070
I1
s(g988
g6720
tp9071
I1
s(g6402
g6380
tp9072
I1
s(g7834
g2311
tp9073
I1
s(S'2'
S'full'
p9074
tp9075
I1
s(g1356
S'need'
p9076
tp9077
I1
s(g72
S'more'
p9078
tp9079
I1
s(g3634
S'on'
p9080
tp9081
I1
s(S'senate'
p9082
g2982
tp9083
I1
s(g5643
g5154
tp9084
I1
s(g2291
g4779
tp9085
I1
s(g7344
g6877
tp9086
I4
s(S'4'
g7898
tp9087
I1
s(g2395
S'and'
p9088
tp9089
I1
s(g537
g9023
tp9090
I1
s(g6803
g6758
tp9091
I1
s(g8853
S'austin'
p9092
tp9093
I1
s(g8010
g3206
tp9094
I1
s(g7717
S'of'
p9095
tp9096
I1
s(g5453
S'the'
p9097
tp9098
I1
s(S'said'
p9099
g6561
tp9100
I1
s(g3258
g5669
tp9101
I1
s(g8918
g3357
tp9102
I1
s(S'of'
p9103
g4846
tp9104
I1
s(g4647
g3198
tp9105
I2
s(g1704
g8833
tp9106
I1
s(g5268
g1614
tp9107
I1
s(g5278
g7709
tp9108
I1
s(S'the'
p9109
g8897
tp9110
I1
s(g2244
g4388
tp9111
I1
s(S'that'
p9112
g917
tp9113
I1
s(g2552
g7609
tp9114
I1
s(S'and'
p9115
g6149
tp9116
I1
s(S'composition'
p9117
g4418
tp9118
I1
s(S'polls'
p9119
g7350
tp9120
I1
s(g4880
g4923
tp9121
I2
s(g7893
g5245
tp9122
I1
s(g4277
S'contributions'
p9123
tp9124
I1
s(S'the'
p9125
S'army'
p9126
tp9127
I1
s(g2520
S'was'
p9128
tp9129
I1
s(g4637
g6436
tp9130
I1
s(g9028
g3789
tp9131
I1
s(g7058
g3902
tp9132
I1
s(g5967
g6512
tp9133
I1
s(S'for'
p9134
g5446
tp9135
I1
s(g270
g107
tp9136
I1
s(g4290
S'cox'
p9137
tp9138
I1
s(g4924
S'at'
p9139
tp9140
I1
s(g5879
g2519
tp9141
I1
s(g8899
g4286
tp9142
I1
s(g5171
g8101
tp9143
I1
s(g8779
g8848
tp9144
I1
s(g7580
g8841
tp9145
I1
s(S'on'
p9146
g6301
tp9147
I1
s(g5735
g3461
tp9148
I5
s(g7655
S'dissents'
p9149
tp9150
I1
s(S'homes'
p9151
S'in'
p9152
tp9153
I1
s(g7800
g7480
tp9154
I1
s(g5438
S'of'
p9155
tp9156
I1
s(S'yet'
p9157
S'who'
p9158
tp9159
I1
s(S'a'
g5820
tp9160
I1
s(g6108
g5909
tp9161
I1
s(g4619
S'petitions'
p9162
tp9163
I1
s(g5723
S'that'
p9164
tp9165
I1
s(g2850
g7418
tp9166
I1
s(g7932
g8099
tp9167
I1
s(g5473
S'among'
p9168
tp9169
I1
s(S'been'
p9170
g5706
tp9171
I1
s(S'that'
p9172
g134
tp9173
I2
s(g1208
S'is'
p9174
tp9175
I1
s(S'give'
p9176
g807
tp9177
I1
s(g6691
g9018
tp9178
I1
s(g6559
g1818
tp9179
I1
s(g1127
g2808
tp9180
I1
s(S'revision'
p9181
g2674
tp9182
I1
s(g7064
g402
tp9183
I1
s(g1268
g4184
tp9184
I1
s(S'his'
p9185
g6466
tp9186
I1
s(S'ruling'
p9187
g6013
tp9188
I1
s(g4489
S'those'
p9189
tp9190
I1
s(S"i'm"
p9191
g7779
tp9192
I1
s(g3959
S'for'
p9193
tp9194
I1
s(S'a'
g7020
tp9195
I1
s(S'ridge'
p9196
g500
tp9197
I1
s(g4536
S'the'
p9198
tp9199
I1
s(S'of'
p9200
g7398
tp9201
I2
s(S'banks'
p9202
g7856
tp9203
I1
s(g4013
S'the'
p9204
tp9205
I1
s(g7130
g6097
tp9206
I1
s(g233
g4921
tp9207
I1
s(S'92'
p9208
S'medical'
p9209
tp9210
I1
s(g32
g4141
tp9211
I1
s(g7478
g4705
tp9212
I1
s(g462
g6597
tp9213
I1
s(g6916
g4966
tp9214
I1
s(g8827
S'that'
p9215
tp9216
I1
s(g87
g1882
tp9217
I1
s(S'schools'
p9218
S'the'
p9219
tp9220
I2
s(S'a'
g2638
tp9221
I1
s(g3928
g527
tp9222
I1
s(g1936
g3933
tp9223
I1
s(g5361
g8913
tp9224
I1
s(S'would'
p9225
g4276
tp9226
I1
s(g7384
S'he'
p9227
tp9228
I1
s(g6229
S'intimidation'
p9229
tp9230
I1
s(g1426
g6682
tp9231
I1
s(g1801
g9157
tp9232
I1
s(g6565
g8594
tp9233
I1
s(S'that'
p9234
g5300
tp9235
I1
s(g9155
S'betting'
p9236
tp9237
I1
s(g5039
S'diagnostic'
p9238
tp9239
I1
s(S'court'
p9240
S'some'
p9241
tp9242
I1
s(g5926
S'a'
tp9243
I1
s(g6209
g3133
tp9244
I1
s(g2027
S'enter'
p9245
tp9246
I2
s(g8614
g5780
tp9247
I1
s(S'1'
S'to'
p9248
tp9249
I1
s(S'petition'
p9250
g8876
tp9251
I1
s(S'texas'
p9252
S'house'
p9253
tp9254
I1
s(g7803
S'of'
p9255
tp9256
I2
s(g6858
S'hospital'
p9257
tp9258
I1
s(S'dorsey'
p9259
S'added'
p9260
tp9261
I1
s(g6938
g9060
tp9262
I1
s(g4126
g1723
tp9263
I1
s(g7114
S'which'
p9264
tp9265
I1
s(g7051
g3814
tp9266
I1
s(g691
g2282
tp9267
I1
s(S'retirement'
p9268
S'systems'
p9269
tp9270
I1
s(g6882
S'semester'
p9271
tp9272
I1
s(S'1'
g408
tp9273
I2
s(g2473
S'a'
tp9274
I3
s(S'be'
p9275
g7460
tp9276
I2
s(g8202
g6693
tp9277
I2
s(S'ward'
p9278
S'had'
p9279
tp9280
I1
s(S'out'
p9281
g8237
tp9282
I1
s(g8668
g6973
tp9283
I1
s(S'plan'
p9284
S'those'
p9285
tp9286
I1
s(g7868
g776
tp9287
I1
s(g4745
g773
tp9288
I2
s(g7915
g48
tp9289
I1
s(g6914
S'el'
p9290
tp9291
I1
s(g7520
g8858
tp9292
I1
s(g7965
S'texas'
p9293
tp9294
I1
s(g8975
S'with'
p9295
tp9296
I1
s(g4698
g2016
tp9297
I1
s(g9137
g1321
tp9298
I1
s(g8059
S'in'
p9299
tp9300
I1
s(g8503
g22
tp9301
I1
s(S'termend'
p9302
g4801
tp9303
I1
s(g4911
S'new'
p9304
tp9305
I1
s(S'their'
p9306
g7026
tp9307
I1
s(S'ratcliff'
p9308
g3607
tp9309
I1
s(S'i'
g4688
tp9310
I1
s(g1403
S'committees'
p9311
tp9312
I1
s(g1563
g6822
tp9313
I1
s(S'parents'
p9314
S'as'
p9315
tp9316
I1
s(S'which'
p9317
S'barber'
p9318
tp9319
I1
s(g7785
S'elected'
p9320
tp9321
I1
s(g8401
g3254
tp9322
I2
s(S'construction'
p9323
S'will'
p9324
tp9325
I1
s(g2576
g2874
tp9326
I1
s(g6710
S'of'
p9327
tp9328
I1
s(g4614
S'of'
p9329
tp9330
I1
s(g9257
g1433
tp9331
I1
s(S'accepted'
p9332
g2004
tp9333
I1
s(g2537
g2452
tp9334
I1
s(S'actually'
p9335
g4497
tp9336
I1
s(g8407
S'and'
p9337
tp9338
I2
s(g7153
g2994
tp9339
I1
s(g3202
g4825
tp9340
I2
s(g3525
g3409
tp9341
I1
s(g3003
g920
tp9342
I1
s(S'he'
p9343
g7888
tp9344
I1
s(g8358
g3347
tp9345
I1
s(g5306
g5934
tp9346
I1
s(S'the'
p9347
S'10'
p9348
tp9349
I1
s(g6446
g1782
tp9350
I1
s(g3276
g1770
tp9351
I1
s(g4361
g4391
tp9352
I1
s(g1012
g5201
tp9353
I1
s(g3973
g7763
tp9354
I1
s(g2330
g8580
tp9355
I1
s(g6223
g7777
tp9356
I2
s(g3093
g7235
tp9357
I1
s(S'bush'
p9358
g1983
tp9359
I1
s(g5710
g2659
tp9360
I1
s(S'is'
p9361
S'that'
p9362
tp9363
I1
s(S'of'
p9364
g4659
tp9365
I1
s(g2992
g7282
tp9366
I1
s(g7439
g3838
tp9367
I1
s(g3155
g7382
tp9368
I1
s(g5000
g7716
tp9369
I1
s(S'the'
p9370
g272
tp9371
I3
s(g8522
g6433
tp9372
I1
s(g1795
S'gotten'
p9373
tp9374
I1
s(S'jury'
p9375
g5656
tp9376
I1
s(g7687
S'of'
p9377
tp9378
I1
s(S'a'
g8029
tp9379
I2
s(g301
g2777
tp9380
I1
s(g2461
g8808
tp9381
I1
s(g7926
S'of'
p9382
tp9383
I1
s(S'1'
g7735
tp9384
I1
s(g7902
g1061
tp9385
I1
s(g1621
g1803
tp9386
I1
s(g6584
g1428
tp9387
I1
s(g3647
g3234
tp9388
I3
s(g9042
S'million'
p9389
tp9390
I1
s(g1054
g3435
tp9391
I1
s(g7663
S'another'
p9392
tp9393
I1
s(g6285
g7509
tp9394
I1
s(g5184
g4907
tp9395
I1
s(g8703
g1435
tp9396
I1
s(g8844
g8383
tp9397
I1
s(g9373
g3686
tp9398
I1
s(g9271
g5499
tp9399
I3
s(g7850
g787
tp9400
I1
s(g9245
S'a'
tp9401
I2
s(S'school'
p9402
g1509
tp9403
I1
s(S'a'
g8051
tp9404
I1
s(S'jury'
p9405
g8005
tp9406
I1
s(g7495
S'and'
p9407
tp9408
I5
s(g1601
g577
tp9409
I1
s(g6621
g7502
tp9410
I1
s(g3177
g8319
tp9411
I1
s(S'cities'
p9412
g7409
tp9413
I1
s(g4524
g6448
tp9414
I1
s(g6718
S'the'
p9415
tp9416
I1
s(S'of'
p9417
g3832
tp9418
I1
s(S'on'
p9419
g3605
tp9420
I1
s(S'a'
S'20'
p9421
tp9422
I1
s(g9269
S'1'
tp9423
I1
s(g3487
S'program'
p9424
tp9425
I1
s(S'in'
p9426
g7294
tp9427
I2
s(g8082
g1318
tp9428
I2
s(g1474
g5024
tp9429
I1
s(g7009
g5505
tp9430
I1
s(S'president'
p9431
S'called'
p9432
tp9433
I1
s(S"president's"
p9434
g9284
tp9435
I1
s(g239
S'the'
p9436
tp9437
I1
s(g8723
g2174
tp9438
I1
s(S'its'
p9439
g9323
tp9440
I1
s(g7174
g8662
tp9441
I1
s(g444
g1003
tp9442
I1
s(g9311
g1876
tp9443
I1
s(g6923
g9181
tp9444
I1
s(g8633
g5360
tp9445
I1
s(S'reaction'
p9446
g6995
tp9447
I1
s(S'health'
p9448
g1178
tp9449
I1
s(S'staggered'
p9450
S'by'
p9451
tp9452
I1
s(g9010
S'it'
p9453
tp9454
I1
s(S'friday'
p9455
g8554
tp9456
I1
s(S'the'
p9457
g3471
tp9458
I2
s(g251
g5864
tp9459
I1
s(g4435
g3810
tp9460
I1
s(g284
S'said'
p9461
tp9462
I1
s(g7157
g2689
tp9463
I2
s(S'you'
p9464
g7620
tp9465
I1
s(g3160
S'constitutional'
p9466
tp9467
I1
s(g313
g6353
tp9468
I1
s(S'also'
p9469
g7876
tp9470
I1
s(S'asked'
p9471
S'a'
tp9472
I1
s(g5708
g7566
tp9473
I1
s(S'scheduled'
p9474
S'to'
p9475
tp9476
I1
s(S"georgia's"
p9477
g8538
tp9478
I1
s(S'by'
p9479
S'cotten'
p9480
tp9481
I1
s(g1001
S'constitutional'
p9482
tp9483
I1
s(g5922
S'cook'
p9484
tp9485
I1
s(g9318
g3121
tp9486
I1
s(S'the'
p9487
S'session'
p9488
tp9489
I1
s(g5915
g8381
tp9490
I1
s(g1502
S'costly'
p9491
tp9492
I1
s(S'dallas'
p9493
g8511
tp9494
I1
s(g4844
g8491
tp9495
I1
s(g8819
g9332
tp9496
I1
s(g6041
g5567
tp9497
I1
s(S'have'
p9498
g6477
tp9499
I1
s(g5612
g8349
tp9500
I1
s(g5069
g5858
tp9501
I1
s(S'rescind'
p9502
S'the'
p9503
tp9504
I2
s(g6775
g8558
tp9505
I1
s(S'to'
p9506
g8097
tp9507
I1
s(g7699
g3948
tp9508
I1
s(S'been'
p9509
S'an'
p9510
tp9511
I1
s(g260
S'the'
p9512
tp9513
I1
s(g8278
g1479
tp9514
I7
s(g5691
g6857
tp9515
I1
s(S'paradise'
p9516
g8374
tp9517
I1
s(g8830
g6472
tp9518
I1
s(g7271
g3540
tp9519
I1
s(g7742
S'to'
p9520
tp9521
I1
s(S'floor'
p9522
g3753
tp9523
I1
s(g1334
g2335
tp9524
I1
s(g6731
S'in'
p9525
tp9526
I1
s(g3621
g548
tp9527
I1
s(S'a'
g6133
tp9528
I1
s(S'said'
p9529
g9185
tp9530
I3
s(g2312
g2203
tp9531
I1
s(g6290
S'a'
tp9532
I1
s(S'been'
p9533
g2692
tp9534
I1
s(S'more'
p9535
S'in'
p9536
tp9537
I1
s(g8885
g7402
tp9538
I1
s(g664
g8296
tp9539
I1
s(g8700
g4573
tp9540
I1
s(g1933
g2366
tp9541
I1
s(g2614
g3397
tp9542
I1
s(g6630
S'a'
tp9543
I1
s(g135
S'implementation'
p9544
tp9545
I1
s(g1839
g3028
tp9546
I1
s(g4970
S'in'
p9547
tp9548
I1
s(g8444
g6418
tp9549
I1
s(g8035
g943
tp9550
I1
s(g5310
S'to'
p9551
tp9552
I1
s(S'the'
p9553
S'negro'
p9554
tp9555
I1
s(g6694
g3157
tp9556
I1
s(g4859
S'by'
p9557
tp9558
I1
s(g5897
S'of'
p9559
tp9560
I1
s(g230
g6833
tp9561
I1
s(g8344
g1490
tp9562
I1
s(g6502
g902
tp9563
I1
s(g7466
S'plan'
p9564
tp9565
I1
s(g5696
S'in'
p9566
tp9567
I1
s(g1807
g3905
tp9568
I1
s(g8751
g8124
tp9569
I1
s(g6759
g1597
tp9570
I1
s(g5940
S'a'
tp9571
I2
s(g7220
g8393
tp9572
I1
s(S'one'
p9573
g5562
tp9574
I1
s(g5440
g6971
tp9575
I1
s(g334
g6197
tp9576
I1
s(S'the'
p9577
S'board'
p9578
tp9579
I1
s(g8710
g8078
tp9580
I2
s(S'department'
p9581
g4330
tp9582
I2
s(g4748
g9117
tp9583
I1
s(S'a'
S'report'
p9584
tp9585
I1
s(g5742
g7389
tp9586
I1
s(S'audience'
p9587
g7335
tp9588
I1
s(g8074
S'on'
p9589
tp9590
I2
s(g8007
S'3'
tp9591
I1
s(g1340
g5777
tp9592
I14
s(S'the'
p9593
g5963
tp9594
I1
s(S'hours'
p9595
g8429
tp9596
I1
s(g9162
g9281
tp9597
I1
s(g6500
g7639
tp9598
I1
s(g4686
g4861
tp9599
I1
s(g8626
g7751
tp9600
I1
s(S'for'
p9601
g3740
tp9602
I2
s(g7278
S'65'
p9603
tp9604
I2
s(g1759
S'city'
p9605
tp9606
I1
s(g2076
g2481
tp9607
I1
s(S'texas'
p9608
g9516
tp9609
I1
s(g5506
g2361
tp9610
I1
s(g6172
g643
tp9611
I1
s(g8231
S'constituted'
p9612
tp9613
I1
s(S'a'
g7725
tp9614
I1
s(g2864
S'department'
p9615
tp9616
I1
s(g5952
g9191
tp9617
I1
s(g4477
g3546
tp9618
I1
s(g4119
g677
tp9619
I1
s(g9554
g7504
tp9620
I1
s(g8585
S'a'
tp9621
I1
s(S'allen'
p9622
g6629
tp9623
I1
s(g7444
g1053
tp9624
I1
s(S'the'
p9625
g3552
tp9626
I1
s(g9076
g5397
tp9627
I1
s(g5006
g9464
tp9628
I1
s(g1969
g8980
tp9629
I1
s(g4700
S'that'
p9630
tp9631
I1
s(g2487
g6335
tp9632
I1
s(g6505
g7711
tp9633
I1
s(g8139
S'a'
tp9634
I8
s(g7937
S'in'
p9635
tp9636
I1
s(S'property'
p9637
g7242
tp9638
I1
s(S'house'
p9639
g7913
tp9640
I1
s(g5946
g6208
tp9641
I1
s(g6747
g9314
tp9642
I1
s(S'3'
g8978
tp9643
I1
s(g6326
g7910
tp9644
I1
s(S'the'
p9645
g2225
tp9646
I2
s(g1119
g8456
tp9647
I4
s(g5853
g1824
tp9648
I1
s(g1101
g4587
tp9649
I1
s(S'to'
p9650
g4814
tp9651
I2
s(g4716
g9506
tp9652
I1
s(g9168
S'the'
p9653
tp9654
I1
s(g5119
g2733
tp9655
I1
s(g7386
S'congress'
p9656
tp9657
I1
s(g1205
S'1'
tp9658
I1
s(S'was'
p9659
S'viewed'
p9660
tp9661
I1
s(g5395
g4017
tp9662
I1
s(S'telephone'
p9663
g7092
tp9664
I1
s(g4243
g3748
tp9665
I1
s(g1377
S'to'
p9666
tp9667
I1
s(g6454
g830
tp9668
I1
s(g7889
g7285
tp9669
I1
s(g8651
g9151
tp9670
I2
s(g8624
g345
tp9671
I1
s(g7316
g5698
tp9672
I1
s(g8218
g2506
tp9673
I1
s(S'would'
p9674
g1405
tp9675
I1
s(g4450
S'of'
p9676
tp9677
I1
s(S'of'
p9678
g7277
tp9679
I1
s(S'years'
p9680
g4910
tp9681
I1
s(S'the'
p9682
g2131
tp9683
I1
s(g8333
g7123
tp9684
I1
s(g7702
S'1'
tp9685
I1
s(g6666
g7301
tp9686
I2
s(S'the'
p9687
S'blue'
p9688
tp9689
I1
s(g5220
S'the'
p9690
tp9691
I1
s(g5789
g2788
tp9692
I1
s(g7992
g383
tp9693
I1
s(g7035
g4373
tp9694
I1
s(g5003
S'by'
p9695
tp9696
I1
s(g7492
g8584
tp9697
I2
s(S'a'
g119
tp9698
I1
s(g5634
g6303
tp9699
I3
s(g6024
g377
tp9700
I1
s(S'the'
p9701
g7996
tp9702
I3
s(g7430
S'high'
p9703
tp9704
I1
s(g6615
S'the'
p9705
tp9706
I1
s(S'court'
p9707
g6676
tp9708
I1
s(g9392
S'10'
p9709
tp9710
I1
s(g7473
g5687
tp9711
I5
s(g7707
g3570
tp9712
I1
s(g4743
g497
tp9713
I1
s(S'house'
p9714
S'it'
p9715
tp9716
I1
s(g8436
g9067
tp9717
I1
s(g5294
g4059
tp9718
I1
s(S"body's"
p9719
g4165
tp9720
I1
s(g7952
g3961
tp9721
I1
s(g4010
g5939
tp9722
I1
s(g8597
S'a'
tp9723
I1
s(g1254
g3840
tp9724
I1
s(g7720
g4884
tp9725
I3
s(g6114
g9674
tp9726
I6
s(g7564
g2682
tp9727
I1
s(g7371
g5888
tp9728
I1
s(S'hear'
p9729
S'seven'
p9730
tp9731
I1
s(g8027
g4292
tp9732
I1
s(S'year'
p9733
S'it'
p9734
tp9735
I1
s(g9491
g6551
tp9736
I1
s(S'said'
p9737
g6548
tp9738
I1
s(g9584
S'of'
p9739
tp9740
I1
s(S'grants'
p9741
g2742
tp9742
I2
s(g2198
g8165
tp9743
I2
s(g8948
S'monday'
p9744
tp9745
I1
s(g2986
g2404
tp9746
I1
s(S'said'
p9747
g9308
tp9748
I1
s(g2021
g2211
tp9749
I1
s(g5061
g7151
tp9750
I1
s(g5653
g8440
tp9751
I1
s(g7880
g7760
tp9752
I1
s(S'kept'
p9753
S'in'
p9754
tp9755
I1
s(g2648
g4934
tp9756
I1
s(g1065
g8466
tp9757
I1
s(g414
g6231
tp9758
I1
s(g192
g1027
tp9759
I1
s(g9036
g6073
tp9760
I1
s(g552
g6274
tp9761
I1
s(S'the'
p9762
g4836
tp9763
I2
s(S'shouting'
p9764
g1694
tp9765
I1
s(g3383
S'of'
p9766
tp9767
I1
s(g2801
g2254
tp9768
I1
s(g9488
g2319
tp9769
I1
s(g2093
S'in'
p9770
tp9771
I1
s(g6854
g357
tp9772
I1
s(g1546
g3716
tp9773
I1
s(g5190
g7829
tp9774
I1
s(g8171
g9259
tp9775
I1
s(g3827
g9172
tp9776
I1
s(S'georgia'
p9777
g9639
tp9778
I1
s(g3763
S'to'
p9779
tp9780
I1
s(g3624
g3711
tp9781
I1
s(g4468
g8488
tp9782
I1
s(g5071
g5256
tp9783
I1
s(g3660
g6415
tp9784
I1
s(g7149
S'from'
p9785
tp9786
I1
s(g6280
g9187
tp9787
I1
s(g7239
g8217
tp9788
I1
s(g8084
g8862
tp9789
I1
s(g2099
S'dollars'
p9790
tp9791
I6
s(g4577
g2584
tp9792
I1
s(g9779
g8995
tp9793
I1
s(g9421
S'million'
p9794
tp9795
I1
s(g9480
g3035
tp9796
I1
s(S'ask'
p9797
S'congress'
p9798
tp9799
I1
s(g1927
g8687
tp9800
I1
s(g7265
g4601
tp9801
I1
s(S'year'
p9802
g206
tp9803
I1
s(S'12'
p9804
g3730
tp9805
I1
s(g5558
g9302
tp9806
I1
s(g7722
g1726
tp9807
I1
s(S'city'
p9808
g6892
tp9809
I1
s(g8646
S'trial'
p9810
tp9811
I1
s(g6633
S'the'
p9812
tp9813
I1
s(g3014
g7814
tp9814
I1
s(g2645
g1570
tp9815
I1
s(g9126
g1444
tp9816
I1
s(g3733
g7534
tp9817
I1
s(g8102
g5270
tp9818
I1
s(g1580
S'in'
p9819
tp9820
I1
s(S'and'
p9821
g7931
tp9822
I1
s(S'9'
g4843
tp9823
I1
s(g4834
g164
tp9824
I1
s(g7016
S'ward'
p9825
tp9826
I1
s(g8959
g2546
tp9827
I1
s(S'a'
g6184
tp9828
I1
s(g248
g9455
tp9829
I1
s(g3723
g1797
tp9830
I1
s(S'senator'
p9831
S'a'
tp9832
I1
s(g8664
S'counties'
p9833
tp9834
I1
s(g6811
S'to'
p9835
tp9836
I1
s(S'of'
p9837
g6508
tp9838
I1
s(g1639
g5829
tp9839
I1
s(g6079
g4006
tp9840
I2
s(g1816
g3456
tp9841
I1
s(g7136
S'the'
p9842
tp9843
I1
s(g304
g83
tp9844
I1
s(S'the'
p9845
g3458
tp9846
I1
s(g7033
g8691
tp9847
I1
s(g9605
S'the'
p9848
tp9849
I2
s(g8064
g9601
tp9850
I1
s(S'resolution'
p9851
S'which'
p9852
tp9853
I2
s(g1819
S'to'
p9854
tp9855
I1
s(g1497
g617
tp9856
I1
s(g8208
g545
tp9857
I1
s(g8419
S'has'
p9858
tp9859
I1
s(g1282
g2782
tp9860
I1
s(g7368
g7245
tp9861
I1
s(g8540
g7870
tp9862
I1
s(g6182
g8992
tp9863
I2
s(g111
g708
tp9864
I1
s(g2792
S'he'
p9865
tp9866
I1
s(S'devote'
p9867
g3298
tp9868
I1
s(g635
g8138
tp9869
I1
s(g6057
g3201
tp9870
I1
s(g4668
g3952
tp9871
I2
s(g5794
g4223
tp9872
I1
s(g2652
g2192
tp9873
I2
s(g8914
g2771
tp9874
I1
s(g5532
g4197
tp9875
I1
s(g1712
g5176
tp9876
I1
s(S'two'
p9877
g6001
tp9878
I1
s(g5919
g6034
tp9879
I2
s(g2097
S'and'
p9880
tp9881
I2
s(g6044
g7873
tp9882
I1
s(S'roberts'
p9883
g5991
tp9884
I1
s(g6908
g3662
tp9885
I1
s(S'the'
p9886
g4265
tp9887
I1
s(g4389
g623
tp9888
I1
s(S'would'
p9889
S'carry'
p9890
tp9891
I1
s(g9236
S'on'
p9892
tp9893
I1
s(g9510
g8012
tp9894
I1
s(g7797
g8247
tp9895
I1
s(g8774
g1870
tp9896
I2
s(g4754
g5981
tp9897
I1
s(g1701
g9747
tp9898
I1
s(g2585
S'listed'
p9899
tp9900
I1
s(g8972
S'the'
p9901
tp9902
I1
s(g7598
g3655
tp9903
I1
s(S'bill'
p9904
g726
tp9905
I1
s(g8569
S"boy's"
p9906
tp9907
I1
s(S'president'
p9908
g964
tp9909
I1
s(g868
g9663
tp9910
I1
s(g6354
g5383
tp9911
I1
s(g5492
g8889
tp9912
I1
s(g2683
g5170
tp9913
I1
s(g9019
g6651
tp9914
I1
s(g126
S'less'
p9915
tp9916
I1
s(g4826
g4589
tp9917
I1
s(g4380
g1422
tp9918
I7
s(S'fulton'
p9919
g2780
tp9920
I1
s(g7544
g351
tp9921
I1
s(S'dallas'
p9922
S'most'
p9923
tp9924
I1
s(S'a'
g2183
tp9925
I1
s(S'debate'
p9926
S'as'
p9927
tp9928
I1
s(g8756
g2595
tp9929
I1
s(g7329
g6845
tp9930
I1
s(S'114'
p9931
S'to'
p9932
tp9933
I1
s(g9128
g6862
tp9934
I1
s(g7957
g7645
tp9935
I1
s(S'future'
p9936
S'of'
p9937
tp9938
I1
s(g9503
g9719
tp9939
I1
s(g2970
g731
tp9940
I1
s(g8117
g3645
tp9941
I1
s(g7485
S'in'
p9942
tp9943
I1
s(g9320
g654
tp9944
I1
s(g6395
g9446
tp9945
I1
s(g7528
g289
tp9946
I1
s(g7360
g3626
tp9947
I1
s(g1606
g515
tp9948
I4
s(g3289
g4087
tp9949
I1
s(g2636
g7259
tp9950
I1
s(g7571
g8453
tp9951
I2
s(g2400
S'and'
p9952
tp9953
I1
s(g8262
g3688
tp9954
I1
s(S'would'
p9955
g9335
tp9956
I1
s(S'a'
S'water'
p9957
tp9958
I1
s(g2240
g6450
tp9959
I1
s(g6419
g8932
tp9960
I1
s(g9293
g9577
tp9961
I1
s(g1798
g3474
tp9962
I1
s(g4383
g318
tp9963
I1
s(S'a'
g1261
tp9964
I2
s(g5484
g9361
tp9965
I1
s(S'health'
p9966
g7836
tp9967
I1
s(g8839
S'on'
p9968
tp9969
I1
s(g5568
S'he'
p9970
tp9971
I1
s(g4788
S'on'
p9972
tp9973
I1
s(S'the'
p9974
g5280
tp9975
I1
s(g968
g6346
tp9976
I1
s(S'county'
p9977
g5115
tp9978
I1
s(g774
g6765
tp9979
I1
s(g9660
S'as'
p9980
tp9981
I1
s(g4491
g7686
tp9982
I1
s(g4358
S'that'
p9983
tp9984
I1
s(g4315
g4798
tp9985
I1
s(S'given'
p9986
g5192
tp9987
I1
s(g3737
g336
tp9988
I1
s(g4579
g1397
tp9989
I1
s(g2359
S'at'
p9990
tp9991
I1
s(g5801
g9867
tp9992
I1
s(g5108
S'to'
p9993
tp9994
I1
s(g8369
g2622
tp9995
I1
s(g8480
g2578
tp9996
I1
s(g8167
S'the'
p9997
tp9998
I2
s(S'hearing'
p9999
g9419
tp10000
I1
s(g6982
g4138
tp10001
I1
s(g8674
g2078
tp10002
I1
s(g7531
g2308
tp10003
I1
s(g8957
g9637
tp10004
I1
s(S'no'
p10005
g9926
tp10006
I1
s(g40
g1033
tp10007
I1
s(g8298
g4737
tp10008
I1
s(g7283
g8638
tp10009
I1
s(S'to'
p10010
g6921
tp10011
I1
s(g8600
S'is'
p10012
tp10013
I1
s(g1456
g651
tp10014
I1
s(S'the'
p10015
g9804
tp10016
I1
s(g9790
g8447
tp10017
I1
s(S'a'
g1161
tp10018
I1
s(g5772
g1153
tp10019
I1
s(g7286
g14
tp10020
I1
s(g5778
g1315
tp10021
I1
s(g6101
g324
tp10022
I1
s(S'tax'
p10023
g9955
tp10024
I1
s(g9899
g277
tp10025
I1
s(g2066
g3807
tp10026
I1
s(g3207
g2641
tp10027
I1
s(g9957
g7412
tp10028
I1
s(g4422
g8736
tp10029
I1
s(g4152
g6866
tp10030
I1
s(S'demand'
p10031
g4170
tp10032
I1
s(g2255
g9479
tp10033
I1
s(g8938
S'a'
tp10034
I1
s(S'president'
p10035
S'in'
p10036
tp10037
I1
s(g3592
S'a'
tp10038
I1
s(S'year'
p10039
g4379
tp10040
I1
s(S'senate'
p10041
g6975
tp10042
I1
s(S'the'
p10043
g682
tp10044
I3
s(g7755
g2979
tp10045
I1
s(g6772
S'approval'
p10046
tp10047
I1
s(S'approve'
p10048
S'establishment'
p10049
tp10050
I1
s(g9833
S'in'
p10051
tp10052
I1
s(g9238
g6932
tp10053
I1
s(g7375
g767
tp10054
I1
s(g1019
S'plans'
p10055
tp10056
I1
s(g1549
g554
tp10057
I1
s(g9337
g6213
tp10058
I1
s(g5326
g6090
tp10059
I1
s(g1528
g4032
tp10060
I1
s(g2037
g6730
tp10061
I1
s(g1116
g1126
tp10062
I1
s(g6170
g905
tp10063
I2
s(g4346
g687
tp10064
I1
s(S'hours'
p10065
g2300
tp10066
I1
s(g5808
g9208
tp10067
I1
s(S'a'
g2500
tp10068
I1
s(g6106
g6679
tp10069
I1
s(g1062
g3992
tp10070
I1
s(g3311
g2472
tp10071
I1
s(g953
g6372
tp10072
I5
s(g9744
g5173
tp10073
I1
s(g4785
g2381
tp10074
I1
s(g3331
g6608
tp10075
I1
s(g8185
S'2'
tp10076
I1
s(g9906
S'bill'
p10077
tp10078
I1
s(S'the'
p10079
g9027
tp10080
I1
s(S'the'
p10081
g8868
tp10082
I1
s(g3391
S'political'
p10083
tp10084
I1
s(g1431
g7354
tp10085
I1
s(S'a'
g9009
tp10086
I2
s(g6121
g7406
tp10087
I2
s(g2324
g6577
tp10088
I1
s(g842
g8963
tp10089
I1
s(g1276
g4670
tp10090
I1
s(g2657
g9115
tp10091
I1
s(g8223
g4355
tp10092
I1
s(g2011
g5800
tp10093
I1
s(g6259
g8421
tp10094
I1
s(g741
g6484
tp10095
I1
s(g9703
g9402
tp10096
I2
s(g6943
S'they'
p10097
tp10098
I1
s(g6385
g9502
tp10099
I2
s(g4237
g9474
tp10100
I1
s(g9603
g9753
tp10101
I1
s(g8817
g7392
tp10102
I1
s(g4142
g8998
tp10103
I1
s(S'the'
p10104
g9764
tp10105
I1
s(g9424
g7905
tp10106
I1
s(S'issue'
p10107
g8197
tp10108
I1
s(g3070
S'a'
tp10109
I1
s(g4210
S'a'
tp10110
I1
s(g8525
g3565
tp10111
I2
s(g5913
g5140
tp10112
I1
s(g5836
g9450
tp10113
I1
s(g5673
g2156
tp10114
I1
s(g3856
g1488
tp10115
I1
s(g7668
S'the'
p10116
tp10117
I1
s(g5094
g9851
tp10118
I2
s(S'on'
p10119
S'the'
p10120
tp10121
I16
s(g2030
g6722
tp10122
I1
s(S'the'
p10123
g8190
tp10124
I4
s(g1081
g6665
tp10125
I1
s(g3140
g2764
tp10126
I1
s(g1989
g8267
tp10127
I2
s(g9253
g2317
tp10128
I1
s(S'be'
p10129
S'451500'
p10130
tp10131
I1
s(g1507
g8026
tp10132
I1
s(S'cent'
p10133
g8613
tp10134
I2
s(g9149
g3078
tp10135
I1
s(g1262
g9883
tp10136
I1
s(g6753
g5537
tp10137
I1
s(g8109
g9054
tp10138
I1
s(g268
g8173
tp10139
I1
s(g1211
S'to'
p10140
tp10141
I1
s(g5116
S'a'
tp10142
I3
s(g6997
g4370
tp10143
I1
s(g8981
g8178
tp10144
I1
s(g2344
g5677
tp10145
I1
s(g5017
S'should'
p10146
tp10147
I1
s(S'passed'
p10148
g9931
tp10149
I1
s(g5579
g3693
tp10150
I1
s(g3058
g1267
tp10151
I1
s(g5032
g2903
tp10152
I1
s(g8730
g7590
tp10153
I1
s(g5971
S'would'
p10154
tp10155
I1
s(S'that'
p10156
S'none'
p10157
tp10158
I1
s(g9229
g5137
tp10159
I1
s(g2102
g8047
tp10160
I1
s(g10130
g5949
tp10161
I1
s(g3366
g5455
tp10162
I1
s(g2382
g8683
tp10163
I1
s(g7251
g5604
tp10164
I1
s.