(dp1
S''
I1
sS'limited'
p2
I1
sS'child'
p3
I4
sS'four'
p4
I3
sS'facilities'
p5
I2
sS'captain'
p6
I1
sS'votes'
p7
I3
sS'violate'
p8
I1
sS'paris'
p9
I3
sS'voted'
p10
I3
sS'under'
p11
I14
sS'teaching'
p12
I3
sS'sway'
p13
I1
sS'worth'
p14
I5
sS'legislators'
p15
I7
sS'rise'
p16
I1
sS'exception'
p17
I2
sS'handling'
p18
I1
sS'every'
p19
I2
sS'scholarship'
p20
I2
sS'eligio'
p21
I1
sS'school'
p22
I15
sS'skills'
p23
I1
sS'companies'
p24
I3
sS'wednesday'
p25
I1
sS'enforce'
p26
I1
sS'announced'
p27
I1
sS'295'
p28
I1
sS'commented'
p29
I2
sS'force'
p30
I3
sS'29th'
p31
I1
sS'construed'
p32
I1
sS'miller'
p33
I2
sS'direct'
p34
I1
sS'budget'
p35
I2
sS'likely'
p36
I1
sS'attended'
p37
I1
sS'estimated'
p38
I3
sS'blue'
p39
I3
sS'allowances'
p40
I1
sS'selected'
p41
I1
sS'spokesman'
p42
I1
sS'reconstruction'
p43
I1
sS'endorse'
p44
I1
sS'new'
p45
I12
sS'increasing'
p46
I1
sS'ever'
p47
I2
sS'told'
p48
I6
sS'here'
p49
I1
sS'reported'
p50
I3
sS'100'
p51
I1
sS'diagnostic'
p52
I1
sS'obtained'
p53
I2
sS'daughter'
p54
I1
sS'items'
p55
I1
sS'elaborate'
p56
I2
sS"caldwell's"
p57
I1
sS'reports'
p58
I2
sS'controversy'
p59
I2
sS'credit'
p60
I2
sS'permit'
p61
I2
sS"i'm"
p62
I1
sS'hyannis'
p63
I1
sS'campaign'
p64
I5
sS'precincts'
p65
I4
sS'schooling'
p66
I2
sS'highly'
p67
I1
sS'county'
p68
I22
sS'unit'
p69
I2
sS'opponents'
p70
I1
sS'would'
p71
I55
sS'army'
p72
I1
sS'hospital'
p73
I9
sS'program'
p74
I11
sS'recommend'
p75
I2
sS'tell'
p76
I1
sS'1000'
p77
I2
sS'phone'
p78
I1
sS'berlin'
p79
I2
sS'90'
p80
I1
sS'ward'
p81
I7
sS'adamant'
p82
I1
sS'must'
p83
I5
sS'word'
p84
I1
sS'room'
p85
I1
sS'permits'
p86
I1
sS'work'
p87
I7
sS'advocacy'
p88
I1
sS'grover'
p89
I4
sS'henry'
p90
I2
sS'my'
p91
I2
sS'quarrel'
p92
I1
sS'estate'
p93
I1
sS'give'
p94
I4
sS'preserving'
p95
I1
sS'impair'
p96
I1
sS'validated'
p97
I1
sS'absolute'
p98
I1
sS'end'
p99
I2
sS'thing'
p100
I1
sS'provide'
p101
I5
sS"cotten's"
p102
I1
sS'how'
p103
I1
sS'hot'
p104
I1
sS'significance'
p105
I1
sS'widespread'
p106
I1
sS'resignation'
p107
I1
sS'subpenaed'
p108
I1
sS'earlier'
p109
I2
sS'modest'
p110
I2
sS'president'
p111
I18
sS'law'
p112
I7
sS'effective'
p113
I1
sS'18th'
p114
I1
sS'enter'
p115
I2
sS'democratic'
p116
I1
sS'order'
p117
I3
sS'wind'
p118
I1
sS'senators'
p119
I3
sS'office'
p120
I2
sS'devote'
p121
I1
sS'defenders'
p122
I1
sS'over'
p123
I6
sS'expects'
p124
I1
sS'proportionate'
p125
I1
sS'mayor'
p126
I4
sS'before'
p127
I5
sS'fit'
p128
I1
sS'personal'
p129
I1
sS'writing'
p130
I1
sS'better'
p131
I2
sS'402'
p132
I1
sS'then'
p133
I2
sS'them'
p134
I8
sS'intimidation'
p135
I1
sS'they'
p136
I10
sS'schools'
p137
I15
sS'illegitimacy'
p138
I1
sS'bank'
p139
I2
sS'several'
p140
I3
sS'automobile'
p141
I1
sS'leaned'
p142
I1
sS'reasonable'
p143
I1
sS'each'
p144
I8
sS'went'
p145
I2
sS'bond'
p146
I3
sS'series'
p147
I1
sS'vote'
p148
I8
sS'corporations'
p149
I1
sS'aids'
p150
I1
sS'5000000'
p151
I1
sS'tomorrow'
p152
I1
sS'daniel'
p153
I4
sS'medicine'
p154
I3
sS'got'
p155
I4
sS'newly'
p156
I1
sS'size'
p157
I1
sS'appraisers'
p158
I1
sS'gop'
p159
I1
sS'calmest'
p160
I1
sS'clarence'
p161
I1
sS'pirie'
p162
I1
sS'associate'
p163
I1
sS'given'
p164
I5
sS'appointments'
p165
I1
sS'240'
p166
I1
sS'boosting'
p167
I1
sS'enlarge'
p168
I1
sS'estimate'
p169
I1
sS'wanted'
p170
I1
sS'starts'
p171
I1
sS'correctness'
p172
I1
sS'days'
p173
I6
sS'doubling'
p174
I1
sS'oppose'
p175
I1
sS'100000'
p176
I1
sS'incorporated'
p177
I1
sS'repealed'
p178
I1
sS'already'
p179
I1
sS'primary'
p180
I4
sS'rank'
p181
I1
sS'hearing'
p182
I3
sS'featured'
p183
I1
sS'grady'
p184
I1
sS'adopted'
p185
I1
sS'another'
p186
I3
sS'basketball'
p187
I1
sS'service'
p188
I1
sS'top'
p189
I1
sS'1500'
p190
I2
sS'interlude'
p191
I1
sS'needed'
p192
I1
sS'master'
p193
I1
sS'listed'
p194
I4
sS'tom'
p195
I1
sS'john'
p196
I2
sS'malingering'
p197
I1
sS'urban'
p198
I1
sS'serve'
p199
I1
sS'took'
p200
I2
sS'rejected'
p201
I2
sS'advisement'
p202
I2
sS'kept'
p203
I1
sS'sulphur'
p204
I1
sS'hays'
p205
I2
sS'outlay'
p206
I1
sS'project'
p207
I1
sS'matter'
p208
I1
sS'persuade'
p209
I1
sS'guilt'
p210
I2
sS'entail'
p211
I1
sS'manner'
p212
I2
sS'emphasizing'
p213
I1
sS'seen'
p214
I1
sS'seek'
p215
I1
sS'vandiver'
p216
I4
sS'relatively'
p217
I1
sS'affairs'
p218
I1
sS'1966'
p219
I1
sS'1961'
p220
I2
sS'1962'
p221
I1
sS'1963'
p222
I2
sS'sound'
p223
I1
sS'recommended'
p224
I5
sS'subjects'
p225
I1
sS'absorbed'
p226
I1
sS'reelection'
p227
I1
sS'even'
p228
I1
sS'extending'
p229
I1
sS'involving'
p230
I2
sS'professor'
p231
I1
sS'orderly'
p232
I2
sS'voting'
p233
I2
sS'signatures'
p234
I1
sS'retire'
p235
I1
sS'eminent'
p236
I1
sS'undue'
p237
I1
sS'radio'
p238
I1
sS'halleck'
p239
I2
sS'capitol'
p240
I1
sS'judges'
p241
I4
sS'finally'
p242
I2
sS'proposed'
p243
I6
sS'implementation'
p244
I2
sS'bush'
p245
I3
sS'folks'
p246
I1
sS'do'
p247
I2
sS'newton'
p248
I1
sS'de'
p249
I1
sS'television'
p250
I1
sS'coast'
p251
I1
sS'criticized'
p252
I1
sS'despite'
p253
I2
sS'report'
p254
I5
sS'nurse'
p255
I1
sS'bar'
p256
I1
sS'irregularities'
p257
I3
sS"children's"
p258
I1
sS'secretary'
p259
I1
sS'agedcare'
p260
I1
sS'fair'
p261
I3
sS'liquor'
p262
I1
sS'decided'
p263
I1
sS'result'
p264
I1
sS'resigned'
p265
I2
sS'best'
p266
I1
sS'subject'
p267
I1
sS'said'
p268
I55
sS'capacity'
p269
I1
sS'parkhouse'
p270
I5
sS'future'
p271
I4
sS'deputies'
p272
I2
sS'92'
p273
I1
sS'lamar'
p274
I1
sS'nationwide'
p275
I1
sS'handful'
p276
I1
sS'however'
p277
I3
sS'authorizing'
p278
I2
sS'cut'
p279
I1
sS'picking'
p280
I1
sS'improve'
p281
I1
sS'suggested'
p282
I1
sS'received'
p283
I5
sS'protect'
p284
I1
sS'cox'
p285
I2
sS'against'
p286
I5
sS'cod'
p287
I1
sS'receives'
p288
I1
sS'faces'
p289
I1
sS'requests'
p290
I1
sS'expense'
p291
I2
sS'asked'
p292
I7
sS'con'
p293
I1
sS'betting'
p294
I2
sS'springs'
p295
I1
sS'250'
p296
I1
sS'reconsideration'
p297
I1
sS'source'
p298
I2
sS'noes'
p299
I1
sS'referendum'
p300
I1
sS'been'
p301
I15
sS'quickly'
p302
I1
sS'commission'
p303
I1
sS'startled'
p304
I1
sS'interest'
p305
I2
sS'privilege'
p306
I2
sS'pro'
p307
I1
sS'republicans'
p308
I5
sS'worker'
p309
I1
sS'personally'
p310
I2
sS'worked'
p311
I2
sS'commerce'
p312
I1
sS'schley'
p313
I1
sS'east'
p314
I1
sS'near'
p315
I1
sS'teachers'
p316
I2
sS'aid'
p317
I3
sS'property'
p318
I6
sS'study'
p319
I2
sS'procedure'
p320
I1
sS'seven'
p321
I4
sS'is'
p322
I35
sS'it'
p323
I39
sS'defeated'
p324
I2
sS'in'
p325
I118
sS'if'
p326
I5
sS'confirmed'
p327
I1
sS'ignored'
p328
I1
sS'apparently'
p329
I2
sS'make'
p330
I6
sS'amount'
p331
I3
sS'socialized'
p332
I1
sS'principals'
p333
I1
sS'independent'
p334
I1
sS'wexler'
p335
I6
sS'insisted'
p336
I1
sS'shortly'
p337
I2
sS'whereby'
p338
I1
sS'programs'
p339
I3
sS'savings'
p340
I2
sS'practices'
p341
I3
sS'claims'
p342
I1
sS'the'
p343
I439
sS'left'
p344
I1
sS'letterman'
p345
I1
sS'just'
p346
I1
sS'athletic'
p347
I1
sS'distribute'
p348
I1
sS'unfair'
p349
I1
sS'thanks'
p350
I1
sS'yes'
p351
I1
sS'yet'
p352
I2
sS'previous'
p353
I2
sS'denton'
p354
I2
sS'451500'
p355
I1
sS'candidate'
p356
I5
sS'had'
p357
I12
sS'board'
p358
I5
sS'prison'
p359
I2
sS'has'
p360
I17
sS'possible'
p361
I2
sS'birth'
p362
I1
sS'judge'
p363
I6
sS'cape'
p364
I1
sS'apart'
p365
I1
sS'brought'
p366
I2
sS'appearing'
p367
I1
sS'gift'
p368
I1
sS'51'
p369
I1
sS'50'
p370
I3
sS'offices'
p371
I1
sS'plainview'
p372
I1
sS'night'
p373
I5
sS"court's"
p374
I1
sS'security'
p375
I7
sS'stimulatory'
p376
I1
sS'attorney'
p377
I4
sS'right'
p378
I1
sS'old'
p379
I1
sS'deal'
p380
I1
sS'people'
p381
I6
sS'deaf'
p382
I6
sS'unnecessary'
p383
I1
sS'intern'
p384
I1
sS'election'
p385
I17
sS'for'
p386
I80
sS'grants'
p387
I11
sS'establish'
p388
I1
sS'everything'
p389
I1
sS'asking'
p390
I1
sS'denied'
p391
I3
sS'steps'
p392
I1
sS'who'
p393
I22
sS'dental'
p394
I6
sS'outlays'
p395
I1
sS'post'
p396
I1
sS'permitted'
p397
I1
sS'jurors'
p398
I2
sS'dollars'
p399
I9
sS'citizens'
p400
I4
sS'42d'
p401
I1
sS'plus'
p402
I1
sS'afternoon'
p403
I1
sS'automatically'
p404
I1
sS'consulting'
p405
I1
sS'statements'
p406
I6
sS'marshall'
p407
I1
sS'son'
p408
I1
sS'down'
p409
I1
sS'raises'
p410
I2
sS'reducing'
p411
I1
sS'defendants'
p412
I5
sS'often'
p413
I1
sS'crowd'
p414
I1
sS'support'
p415
I1
sS'initial'
p416
I1
sS'legislation'
p417
I2
sS'fight'
p418
I3
sS'absolutely'
p419
I1
sS'virgil'
p420
I1
sS"boy's"
p421
I1
sS'way'
p422
I1
sS'was'
p423
I44
sS'head'
p424
I1
sS'offer'
p425
I2
sS'pierre'
p426
I1
sS'failure'
p427
I2
sS'hear'
p428
I2
sS'true'
p429
I1
sS'fort'
p430
I3
sS'reset'
p431
I1
sS'absent'
p432
I1
sS'counsel'
p433
I1
sS'portions'
p434
I1
sS'veiled'
p435
I2
sS'full'
p436
I2
sS'maximum'
p437
I1
sS'unanimous'
p438
I1
sS'pelham'
p439
I5
sS'150'
p440
I1
sS'evidence'
p441
I3
sS'promised'
p442
I1
sS'exgambler'
p443
I1
sS'no'
p444
I8
sS'stake'
p445
I1
sS'when'
p446
I9
sS'republic'
p447
I1
sS'ambitious'
p448
I1
sS'test'
p449
I2
sS'smell'
p450
I1
sS'raymondville'
p451
I1
sS'permitting'
p452
I1
sS'garland'
p453
I1
sS'why'
p454
I1
sS'football'
p455
I1
sS'miscellaneous'
p456
I1
sS'authorities'
p457
I1
sS'discharge'
p458
I1
sS'weekend'
p459
I2
sS'jones'
p460
I2
sS'fears'
p461
I1
sS'together'
p462
I1
sS'time'
p463
I5
sS'serious'
p464
I2
sS'precedent'
p465
I1
sS'customary'
p466
I1
sS'corps'
p467
I1
sS'rob'
p468
I1
sS'relieve'
p469
I1
sS'dumas'
p470
I1
sS'dirksen'
p471
I1
sS'battle'
p472
I1
sS'21st'
p473
I1
sS'hold'
p474
I1
sS'depend'
p475
I1
sS'prejudicial'
p476
I2
sS'caldwell'
p477
I2
sS'passage'
p478
I1
sS'charge'
p479
I2
sS'praised'
p480
I1
sS'outmoded'
p481
I1
sS'patrolman'
p482
I1
sS'keeping'
p483
I1
sS'choice'
p484
I2
sS'anonymous'
p485
I3
sS'stays'
p486
I1
sS'cook'
p487
I3
sS'trouble'
p488
I2
sS'minute'
p489
I1
sS'governments'
p490
I1
sS'policeman'
p491
I2
sS'did'
p492
I6
sS'rights'
p493
I1
sS'proposals'
p494
I4
sS'gun'
p495
I1
sS'culminating'
p496
I1
sS'item'
p497
I1
sS'depositors'
p498
I1
sS'team'
p499
I1
sS'talked'
p500
I1
sS'says'
p501
I2
sS'strickland'
p502
I1
sS'prediction'
p503
I1
sS'sign'
p504
I2
sS'cost'
p505
I7
sS'patient'
p506
I4
sS'port'
p507
I1
sS'salinger'
p508
I2
sS'constitution'
p509
I1
sS'septemberoctober'
p510
I1
sS'assistance'
p511
I2
sS'current'
p512
I1
sS'goes'
p513
I1
sS'staff'
p514
I1
sS'boost'
p515
I2
sS'8731'
p516
I1
sS'drafted'
p517
I1
sS'jury'
p518
I23
sS'water'
p519
I5
sS'address'
p520
I4
sS'alone'
p521
I1
sS'along'
p522
I1
sS'teaches'
p523
I1
sS'teacher'
p524
I5
sS'change'
p525
I1
sS'wait'
p526
I1
sS'sending'
p527
I1
sS'institute'
p528
I2
sS'studied'
p529
I2
sS'trial'
p530
I6
sS'navigation'
p531
I1
sS'merely'
p532
I1
sS'prefer'
p533
I1
sS'marked'
p534
I1
sS'licensing'
p535
I1
sS'employer'
p536
I1
sS'crisis'
p537
I2
sS'opposes'
p538
I1
sS'indicated'
p539
I1
sS'working'
p540
I1
sS'visit'
p541
I1
sS'live'
p542
I1
sS'opposed'
p543
I2
sS'thru'
p544
I1
sS'countywide'
p545
I1
sS'today'
p546
I2
sS'sessions'
p547
I1
sS'afford'
p548
I1
sS'subsistence'
p549
I1
sS'validity'
p550
I1
sS'durwood'
p551
I1
sS'cases'
p552
I11
sS'effort'
p553
I2
sS'reelected'
p554
I1
sS'parimutuels'
p555
I1
sS'believes'
p556
I1
sS'districts'
p557
I2
sS'can'
p558
I4
sS'9th'
p559
I1
sS'following'
p560
I1
sS'making'
p561
I2
sS'discharging'
p562
I1
sS'fulton'
p563
I14
sS'nursing'
p564
I6
sS"didn't"
p565
I2
sS'heard'
p566
I3
sS'council'
p567
I1
sS'allowed'
p568
I1
sS'requirements'
p569
I1
sS'bonds'
p570
I9
sS'meager'
p571
I1
sS'1'
I10
sS'sunday'
p572
I2
sS'economy'
p573
I1
sS'levy'
p574
I1
sS'142'
p575
I1
sS'may'
p576
I4
sS'ponies'
p577
I1
sS'mac'
p578
I1
sS'produce'
p579
I1
sS'designed'
p580
I3
sS'date'
p581
I2
sS'such'
p582
I7
sS'man'
p583
I1
sS'natural'
p584
I1
sS'succeeded'
p585
I2
sS'needy'
p586
I1
sS'hailed'
p587
I1
sS'jail'
p588
I3
sS'serving'
p589
I1
sS'schwartz'
p590
I1
sS'repair'
p591
I1
sS'pointed'
p592
I1
sS'beaumont'
p593
I1
sS'midnight'
p594
I1
sS'cotten'
p595
I4
sS'years'
p596
I8
sS'ended'
p597
I1
sS'argued'
p598
I3
sS'still'
p599
I3
sS'constituted'
p600
I3
sS'texan'
p601
I1
sS'police'
p602
I2
sS'fiftythree'
p603
I1
sS'platform'
p604
I1
sS'petition'
p605
I4
sS'unspecified'
p606
I2
sS'finance'
p607
I2
sS'recipients'
p608
I1
sS'qualified'
p609
I1
sS'1953'
p610
I1
sS'now'
p611
I6
sS'1958'
p612
I1
sS'rescind'
p613
I2
sS'term'
p614
I4
sS'attorneys'
p615
I2
sS'james'
p616
I3
sS'drop'
p617
I1
sS'el'
p618
I2
sS'domain'
p619
I1
sS'revised'
p620
I1
sS'sponsor'
p621
I2
sS'entering'
p622
I1
sS'year'
p623
I21
sS'prepayment'
p624
I1
sS'living'
p625
I1
sS'jackson'
p626
I1
sS'opened'
p627
I1
sS'oklahoma'
p628
I3
sS'hastily'
p629
I1
sS'increase'
p630
I8
sS'investigation'
p631
I3
sS'formula'
p632
I1
sS'receiving'
p633
I1
sS'after'
p634
I8
sS'million'
p635
I17
sS'criticisms'
p636
I1
sS'quite'
p637
I1
sS'questioning'
p638
I1
sS'remainder'
p639
I1
sS'15000000'
p640
I1
sS'care'
p641
I12
sS'selections'
p642
I1
sS"saturday's"
p643
I1
sS'place'
p644
I4
sS'indispensable'
p645
I1
sS'first'
p646
I12
sS'saving'
p647
I1
sS'revenue'
p648
I1
sS'one'
p649
I12
sS'soaring'
p650
I1
sS'americans'
p651
I1
sS'specifically'
p652
I1
sS'carry'
p653
I2
sS'impossible'
p654
I2
sS'message'
p655
I4
sS'george'
p656
I3
sS'millions'
p657
I4
sS'city'
p658
I12
sS'little'
p659
I2
sS'officials'
p660
I3
sS'district'
p661
I4
sS'carson'
p662
I1
sS'2'
I4
sS'white'
p663
I5
sS'williams'
p664
I5
sS'paidfor'
p665
I1
sS'mostly'
p666
I1
sS'that'
p667
I51
sS'taxation'
p668
I1
sS'subpoenas'
p669
I1
sS'alan'
p670
I1
sS'representing'
p671
I2
sS'than'
p672
I7
sS'population'
p673
I1
sS'11'
p674
I1
sS'10'
p675
I9
sS'13'
p676
I3
sS'12'
p677
I2
sS'15'
p678
I1
sS'third'
p679
I1
sS'17'
p680
I1
sS'18'
p681
I1
sS'require'
p682
I2
sS'protected'
p683
I1
sS'were'
p684
I12
sS'and'
p685
I113
sS'illness'
p686
I2
sS'san'
p687
I2
sS'sam'
p688
I3
sS'topics'
p689
I1
sS'13th'
p690
I1
sS'say'
p691
I2
sS'allen'
p692
I2
sS'saw'
p693
I2
sS'any'
p694
I3
sS'veteran'
p695
I2
sS'aside'
p696
I2
sS'intends'
p697
I1
sS'take'
p698
I6
sS'destroy'
p699
I1
sS'mayer'
p700
I1
sS'200'
p701
I1
sS'begin'
p702
I1
sS'normal'
p703
I1
sS'price'
p704
I1
sS'sherman'
p705
I2
sS'paid'
p706
I4
sS'printed'
p707
I1
sS'31st'
p708
I1
sS'later'
p709
I4
sS'senior'
p710
I1
sS'laws'
p711
I2
sS'shot'
p712
I1
sS'sites'
p713
I1
sS"daniel's"
p714
I1
sS'southwestern'
p715
I1
sS'gulf'
p716
I1
sS'title'
p717
I1
sS'enough'
p718
I2
sS'only'
p719
I4
sS'going'
p720
I1
sS'enthusiasm'
p721
I1
sS'tarrant'
p722
I1
sS'congressional'
p723
I2
sS'dispute'
p724
I1
sS'directed'
p725
I2
sS'get'
p726
I3
sS'contracts'
p727
I2
sS'assistant'
p728
I1
sS'mission'
p729
I1
sS'cannot'
p730
I2
sS'kika'
p731
I1
sS'regarding'
p732
I1
sS'requesting'
p733
I1
sS'cheshire'
p734
I1
sS'quickie'
p735
I1
sS'through'
p736
I3
sS'where'
p737
I2
sS'hospitalcare'
p738
I1
sS'declared'
p739
I1
sS"bill's"
p740
I1
sS'relative'
p741
I1
sS'elected'
p742
I4
sS'1923'
p743
I1
sS'college'
p744
I9
sS'eliminating'
p745
I2
sS'calendar'
p746
I1
sS'weatherford'
p747
I2
sS"byrd's"
p748
I1
sS'voluntary'
p749
I1
sS'federal'
p750
I12
sS'representatives'
p751
I3
sS'3'
I4
sS'bureau'
p752
I1
sS'between'
p753
I3
sS'reading'
p754
I1
sS'whipped'
p755
I1
sS'notice'
p756
I2
sS'marvin'
p757
I1
sS'cities'
p758
I4
sS'undermine'
p759
I1
sS'reaction'
p760
I2
sS'many'
p761
I4
sS'according'
p762
I1
sS'called'
p763
I4
sS'enabling'
p764
I3
sS'berry'
p765
I3
sS'expended'
p766
I1
sS'senator'
p767
I2
sS"can't"
p768
I1
sS'duty'
p769
I1
sS'among'
p770
I2
sS'color'
p771
I1
sS'63'
p772
I1
sS'65'
p773
I4
sS"couldn't"
p774
I1
sS'approval'
p775
I3
sS'moreover'
p776
I1
sS'poll'
p777
I2
sS'sledding'
p778
I1
sS'math'
p779
I1
sS'considering'
p780
I1
sS'howard'
p781
I1
sS'west'
p782
I1
sS'informed'
p783
I1
sS'carey'
p784
I1
sS'combined'
p785
I2
sS'637'
p786
I1
sS'offered'
p787
I1
sS'observers'
p788
I1
sS'clements'
p789
I1
sS'former'
p790
I3
sS'those'
p791
I6
sS'paying'
p792
I2
sS'hughes'
p793
I1
sS'these'
p794
I11
sS'polls'
p795
I3
sS'crump'
p796
I1
sS'pressure'
p797
I1
sS'coolest'
p798
I2
sS'telephone'
p799
I2
sS'quiet'
p800
I1
sS'technology'
p801
I1
sS'doctor'
p802
I4
sS'pay'
p803
I14
sS'granted'
p804
I1
sS'surveillance'
p805
I1
sS"it's"
p806
I1
sS'breakdown'
p807
I1
sS'extended'
p808
I1
sS'director'
p809
I2
sS'persons'
p810
I7
sS'harris'
p811
I1
sS'barber'
p812
I3
sS'guardians'
p813
I1
sS'extern'
p814
I1
sS'mentally'
p815
I1
sS'complained'
p816
I1
sS'drain'
p817
I1
sS'floor'
p818
I2
sS'constitutional'
p819
I3
sS'without'
p820
I1
sS'solve'
p821
I2
sS'congressmen'
p822
I1
sS'charged'
p823
I4
sS'yearly'
p824
I1
sS'being'
p825
I6
sS'money'
p826
I5
sS'unconstitutional'
p827
I1
sS'actions'
p828
I1
sS'kill'
p829
I1
sS'speed'
p830
I1
sS'death'
p831
I1
sS'except'
p832
I2
sS'4'
I5
sS'disproportionate'
p833
I1
sS'scheduled'
p834
I4
sS'aspects'
p835
I1
sS'rules'
p836
I2
sS'admitting'
p837
I1
sS'railroad'
p838
I3
sS'accepted'
p839
I1
sS'alpharetta'
p840
I1
sS'ruled'
p841
I1
sS'kennedy'
p842
I6
sS'wrongful'
p843
I1
sS'audience'
p844
I2
sS'scholastics'
p845
I1
sS'donations'
p846
I1
sS'retailers'
p847
I2
sS'served'
p848
I2
sS'tower'
p849
I1
sS'callan'
p850
I1
sS'reduced'
p851
I1
sS'superintendent'
p852
I3
sS'learning'
p853
I1
sS'erase'
p854
I1
sS'racial'
p855
I2
sS'thinks'
p856
I1
sS'provided'
p857
I1
sS'scholarships'
p858
I3
sS'legal'
p859
I1
sS'conservative'
p860
I1
sS'deficit'
p861
I1
sS'felt'
p862
I1
sS'business'
p863
I1
sS'prosecution'
p864
I1
sS'1937'
p865
I1
sS'innocence'
p866
I1
sS'on'
p867
I45
sS'island'
p868
I1
sS'violence'
p869
I1
sS'pockets'
p870
I1
sS'act'
p871
I5
sS'mean'
p872
I1
sS'or'
p873
I16
sS'road'
p874
I1
sS'protests'
p875
I1
sS'formby'
p876
I1
sS'accounts'
p877
I1
sS'determine'
p878
I1
sS'your'
p879
I1
sS'area'
p880
I1
sS"ordinary's"
p881
I1
sS'there'
p882
I16
sS'alleged'
p883
I1
sS'knowledge'
p884
I1
sS'billion'
p885
I3
sS'750'
p886
I1
sS'cabinet'
p887
I2
sS"commissioner's"
p888
I1
sS'with'
p889
I19
sS'enlarging'
p890
I1
sS'circulation'
p891
I1
sS"wasn't"
p892
I1
sS"mayor's"
p893
I3
sS'strongly'
p894
I1
sS'certain'
p895
I1
sS'totaling'
p896
I1
sS'felix'
p897
I2
sS'sales'
p898
I1
sS'an'
p899
I20
sS'as'
p900
I34
sS'at'
p901
I22
sS'hospitals'
p902
I2
sS'fill'
p903
I1
sS'drafts'
p904
I2
sS'personnel'
p905
I2
sS'storage'
p906
I1
sS'vocational'
p907
I1
sS'insurance'
p908
I3
sS'field'
p909
I1
sS'regents'
p910
I1
sS'1119'
p911
I1
sS'you'
p912
I4
sS"president's"
p913
I2
sS'poor'
p914
I1
sS'congress'
p915
I7
sS'separate'
p916
I1
sS'students'
p917
I2
sS'gifts'
p918
I1
sS'massachusetts'
p919
I1
sS'equitable'
p920
I1
sS'stocks'
p921
I2
sS'fiscal'
p922
I1
sS'calls'
p923
I5
sS'wife'
p924
I2
sS'parsons'
p925
I3
sS'resolution'
p926
I10
sS'legislatures'
p927
I1
sS'all'
p928
I7
sS'caused'
p929
I1
sS'dollar'
p930
I3
sS'scattered'
p931
I1
sS'welfare'
p932
I5
sS'follow'
p933
I2
sS'settlement'
p934
I1
sS'decisions'
p935
I2
sS'children'
p936
I4
sS'causes'
p937
I3
sS'griffin'
p938
I2
sS'subjected'
p939
I1
sS'thursday'
p940
I5
sS'to'
p941
I173
sS'foster'
p942
I1
sS'twothirds'
p943
I1
sS'appointment'
p944
I2
sS'returned'
p945
I1
sS'sitting'
p946
I1
sS'very'
p947
I3
sS'revolving'
p948
I2
sS'24th'
p949
I1
sS'subpenas'
p950
I1
sS'louis'
p951
I2
sS'joined'
p952
I1
sS'large'
p953
I2
sS'desertion'
p954
I1
sS'harry'
p955
I1
sS'tea'
p956
I1
sS'paso'
p957
I2
sS'past'
p958
I1
sS'lawyer'
p959
I1
sS'pass'
p960
I1
sS'further'
p961
I3
sS'requiring'
p962
I1
sS'ribbon'
p963
I1
sS'what'
p964
I3
sS'stood'
p965
I1
sS'sum'
p966
I1
sS'brief'
p967
I1
sS'witnesses'
p968
I1
sS'learned'
p969
I1
sS'public'
p970
I7
sS'karns'
p971
I7
sS'outgoing'
p972
I1
sS'5000'
p973
I1
sS'policies'
p974
I1
sS"nation's"
p975
I2
sS'hours'
p976
I3
sS'operating'
p977
I2
sS'excess'
p978
I1
sS'november'
p979
I1
sS'strong'
p980
I1
sS'backed'
p981
I1
sS'airport'
p982
I2
sS'periodic'
p983
I1
sS'social'
p984
I7
sS'action'
p985
I4
sS'authorize'
p986
I1
sS'dorsey'
p987
I1
sS'family'
p988
I3
sS'aikin'
p989
I1
sS'young'
p990
I1
sS'ask'
p991
I3
sS'semester'
p992
I3
sS'armed'
p993
I1
sS'legislator'
p994
I2
sS'takes'
p995
I1
sS'two'
p996
I9
sS'pearl'
p997
I1
sS'seminole'
p998
I1
sS'6'
I2
sS'taken'
p999
I4
sS'more'
p1000
I13
sS'stolen'
p1001
I1
sS'outpatient'
p1002
I1
sS'garza'
p1003
I1
sS'administrators'
p1004
I1
sS'none'
p1005
I3
sS'hour'
p1006
I1
sS'science'
p1007
I2
sS'policemen'
p1008
I1
sS'nine'
p1009
I1
sS'indicating'
p1010
I1
sS'history'
p1011
I1
sS'accept'
p1012
I1
sS'states'
p1013
I3
sS'pushed'
p1014
I1
sS'concessionaires'
p1015
I1
sS'information'
p1016
I1
sS'needs'
p1017
I3
sS'court'
p1018
I13
sS'rather'
p1019
I1
sS'acts'
p1020
I1
sS'american'
p1021
I2
sS'dismissed'
p1022
I1
sS'58th'
p1023
I2
sS'influences'
p1024
I1
sS'plans'
p1025
I2
sS'pertained'
p1026
I1
sS'juniorsenior'
p1027
I1
sS'disable'
p1028
I1
sS'coming'
p1029
I1
sS'compulsory'
p1030
I1
sS'a'
I146
sS'brady'
p1031
I1
sS'hollowell'
p1032
I1
sS'banks'
p1033
I4
sS'replied'
p1034
I2
sS'help'
p1035
I5
sS'soon'
p1036
I3
sS'held'
p1037
I2
sS'scott'
p1038
I2
sS'committee'
p1039
I15
sS'its'
p1040
I10
sS'24'
p1041
I4
sS'20'
p1042
I4
sS'21'
p1043
I1
sS'22'
p1044
I1
sS'termed'
p1045
I1
sS'actually'
p1046
I2
sS'individuals'
p1047
I1
sS'systems'
p1048
I1
sS'might'
p1049
I1
sS'good'
p1050
I1
sS'return'
p1051
I1
sS'propose'
p1052
I1
sS'awarding'
p1053
I1
sS'anticipated'
p1054
I1
sS'196162'
p1055
I2
sS'misuse'
p1056
I1
sS'association'
p1057
I2
sS'fully'
p1058
I1
sS'courses'
p1059
I4
sS'found'
p1060
I1
sS'week'
p1061
I2
sS'mental'
p1062
I1
sS'house'
p1063
I20
sS'hard'
p1064
I1
sS'reduce'
p1065
I3
sS'idea'
p1066
I1
sS'operation'
p1067
I1
sS'event'
p1068
I1
sS'taunted'
p1069
I1
sS'inquired'
p1070
I1
sS'robert'
p1071
I2
sS'since'
p1072
I5
sS'research'
p1073
I8
sS'acting'
p1074
I2
sS'health'
p1075
I10
sS'hill'
p1076
I1
sS'paradise'
p1077
I2
sS'issue'
p1078
I6
sS'highway'
p1079
I8
sS'lawrence'
p1080
I1
sS'enforcing'
p1081
I1
sS'friday'
p1082
I4
sS'base'
p1083
I1
sS'members'
p1084
I4
sS'put'
p1085
I1
sS'teach'
p1086
I1
sS'benefits'
p1087
I2
sS"year's"
p1088
I2
sS'conducted'
p1089
I1
sS'divorce'
p1090
I1
sS'major'
p1091
I1
sS'feel'
p1092
I1
sS'number'
p1093
I4
sS'traveled'
p1094
I1
sS'enlarged'
p1095
I1
sS'done'
p1096
I1
sS'fees'
p1097
I1
sS'bexar'
p1098
I1
sS'horse'
p1099
I2
sS'inure'
p1100
I1
sS'leading'
p1101
I2
sS'financed'
p1102
I1
sS'swipe'
p1103
I1
sS'least'
p1104
I2
sS'182'
p1105
I1
sS'180'
p1106
I1
sS'passed'
p1107
I9
sS'too'
p1108
I1
sS'option'
p1109
I1
sS'immediate'
p1110
I1
sS'treasurer'
p1111
I1
sS'part'
p1112
I1
sS'favorable'
p1113
I1
sS'vindication'
p1114
I1
sS'1913'
p1115
I1
sS'believe'
p1116
I1
sS'kind'
p1117
I1
sS'gotten'
p1118
I1
sS'breakups'
p1119
I1
sS'toward'
p1120
I2
sS'midmorning'
p1121
I1
sS'texans'
p1122
I1
sS'aged'
p1123
I5
sS'client'
p1124
I2
sS'also'
p1125
I11
sS'costs'
p1126
I5
sS'chairman'
p1127
I6
sS'populous'
p1128
I2
sS'contractual'
p1129
I1
sS'harlingen'
p1130
I1
sS'added'
p1131
I3
sS'most'
p1132
I6
sS'75'
p1133
I1
sS'74'
p1134
I1
sS'sponsored'
p1135
I2
sS'plan'
p1136
I18
sS'71'
p1137
I1
sS'70'
p1138
I1
sS'services'
p1139
I4
sS'extremely'
p1140
I1
sS'approved'
p1141
I5
sS'cover'
p1142
I2
sS'traditional'
p1143
I1
sS'mammoth'
p1144
I1
sS'chester'
p1145
I1
sS'overcrowding'
p1146
I1
sS'physics'
p1147
I1
sS'wording'
p1148
I1
sS'summer'
p1149
I1
sS'obligations'
p1150
I1
sS'doctors'
p1151
I1
sS'hopper'
p1152
I1
sS'unmeritorious'
p1153
I1
sS'session'
p1154
I3
sS'fine'
p1155
I2
sS'find'
p1156
I1
sS'occupation'
p1157
I2
sS'completion'
p1158
I1
sS'nevertheless'
p1159
I2
sS'justice'
p1160
I1
sS'less'
p1161
I2
sS'penalty'
p1162
I1
sS'wayne'
p1163
I1
sS'8'
I2
sS'his'
p1164
I27
sS'meanwhile'
p1165
I1
sS'dependent'
p1166
I1
sS'remedy'
p1167
I1
sS'onefourth'
p1168
I1
sS'during'
p1169
I2
sS'him'
p1170
I1
sS'generally'
p1171
I2
sS'investigate'
p1172
I1
sS'interim'
p1173
I1
sS'recommendations'
p1174
I4
sS'weaver'
p1175
I1
sS'opelika'
p1176
I1
sS'set'
p1177
I2
sS'administrator'
p1178
I1
sS'see'
p1179
I1
sS'defense'
p1180
I1
sS'are'
p1181
I16
sS'close'
p1182
I1
sS'feared'
p1183
I1
sS'threats'
p1184
I1
sS'visiting'
p1185
I1
sS'case'
p1186
I5
sS'won'
p1187
I1
sS'probably'
p1188
I1
sS'available'
p1189
I1
sS'responses'
p1190
I1
sS'missing'
p1191
I1
sS'attention'
p1192
I1
sS"berry's"
p1193
I1
sS'succeed'
p1194
I1
sS'opposition'
p1195
I2
sS'prelude'
p1196
I1
sS'legislature'
p1197
I6
sS'league'
p1198
I1
sS'last'
p1199
I11
sS'license'
p1200
I1
sS"wouldn't"
p1201
I1
sS'annual'
p1202
I3
sS'connection'
p1203
I1
sS'became'
p1204
I1
sS'retarded'
p1205
I1
sS'approve'
p1206
I2
sS'experimental'
p1207
I1
sS'load'
p1208
I2
sS'loan'
p1209
I1
sS'community'
p1210
I3
sS'church'
p1211
I1
sS'bench'
p1212
I1
sS'bellwood'
p1213
I1
sS'monthly'
p1214
I1
sS'political'
p1215
I3
sS'whom'
p1216
I1
sS'meeting'
p1217
I2
sS'firm'
p1218
I1
sS'lived'
p1219
I1
sS'fire'
p1220
I2
sS'gas'
p1221
I2
sS'cruelty'
p1222
I1
sS'fund'
p1223
I2
sS'brokers'
p1224
I2
sS'demand'
p1225
I2
sS'prices'
p1226
I1
sS'instructor'
p1227
I1
sS'georgia'
p1228
I4
sS'bill'
p1229
I20
sS'elections'
p1230
I1
sS'governor'
p1231
I4
sS'technical'
p1232
I1
sS'while'
p1233
I3
sS'real'
p1234
I2
sS'costly'
p1235
I2
sS'escheat'
p1236
I2
sS'voters'
p1237
I5
sS'owen'
p1238
I1
sS'itself'
p1239
I1
sS'ready'
p1240
I1
sS'clerical'
p1241
I1
sS'grant'
p1242
I2
sS'read'
p1243
I1
sS'grand'
p1244
I7
sS'9'
I2
sS'composition'
p1245
I1
sS'conflict'
p1246
I1
sS'higher'
p1247
I1
sS'development'
p1248
I1
sS'used'
p1249
I1
sS'forced'
p1250
I1
sS'yesterday'
p1251
I3
sS'ledford'
p1252
I1
sS'purpose'
p1253
I1
sS'coercion'
p1254
I1
sS'recent'
p1255
I1
sS'older'
p1256
I1
sS'spent'
p1257
I3
sS'person'
p1258
I2
sS'chemistry'
p1259
I1
sS'prevention'
p1260
I1
sS'buchanan'
p1261
I1
sS'allwoman'
p1262
I1
sS'questions'
p1263
I1
sS'alternative'
p1264
I1
sS'retirement'
p1265
I3
sS'advisers'
p1266
I1
sS'workers'
p1267
I2
sS'guaranteed'
p1268
I1
sS'shouting'
p1269
I1
sS'parents'
p1270
I1
sS'questioned'
p1271
I1
sS'build'
p1272
I2
sS'customers'
p1273
I1
sS'march'
p1274
I2
sS'amended'
p1275
I1
sS'lacking'
p1276
I2
sS'demands'
p1277
I1
sS'big'
p1278
I2
sS'couple'
p1279
I2
sS'677'
p1280
I1
sS'matters'
p1281
I1
sS'bit'
p1282
I2
sS'projects'
p1283
I1
sS'outright'
p1284
I1
sS'imposed'
p1285
I1
sS'signal'
p1286
I1
sS'continue'
p1287
I1
sS'ivan'
p1288
I2
sS'essential'
p1289
I1
sS'privately'
p1290
I1
sS'methods'
p1291
I2
sS'senate'
p1292
I11
sS'creation'
p1293
I1
sS'some'
p1294
I10
sS'back'
p1295
I2
sS'delegation'
p1296
I1
sS'experienced'
p1297
I1
sS'mighty'
p1298
I1
sS'pricing'
p1299
I1
sS'28th'
p1300
I1
sS'amicable'
p1301
I1
sS'benefit'
p1302
I1
sS'per'
p1303
I10
sS'eliminate'
p1304
I1
sS"russia's"
p1305
I1
sS'be'
p1306
I43
sS'run'
p1307
I2
sS'300'
p1308
I1
sS'use'
p1309
I2
sS'by'
p1310
I51
sS'pipeline'
p1311
I2
sS'deserves'
p1312
I1
sS'range'
p1313
I1
sS'disclosure'
p1314
I2
sS'into'
p1315
I4
sS'payment'
p1316
I2
sS'termend'
p1317
I1
sS'warned'
p1318
I1
sS'placing'
p1319
I1
sS'question'
p1320
I1
sS'long'
p1321
I3
sS"we're"
p1322
I1
sS'suit'
p1323
I2
sS'considerably'
p1324
I1
sS'himself'
p1325
I2
sS'registered'
p1326
I1
sS'repeatedly'
p1327
I1
sS'filed'
p1328
I1
sS'junior'
p1329
I2
sS'presentments'
p1330
I1
sS'rejection'
p1331
I1
sS'vacancies'
p1332
I1
sS'up'
p1333
I11
sS'prosecutor'
p1334
I1
sS'similar'
p1335
I5
sS'medical'
p1336
I15
sS'precipitated'
p1337
I1
sS'notarized'
p1338
I1
sS'coordinator'
p1339
I1
sS'consulted'
p1340
I1
sS'warning'
p1341
I1
sS'reservoirs'
p1342
I1
sS'rally'
p1343
I1
sS'amounts'
p1344
I1
sS'ballot'
p1345
I4
sS'gainesville'
p1346
I1
sS'matching'
p1347
I2
sS'department'
p1348
I9
sS'revision'
p1349
I1
sS'elements'
p1350
I1
sS'reportedly'
p1351
I1
sS'problems'
p1352
I2
sS'william'
p1353
I2
sS'allowing'
p1354
I1
sS'age'
p1355
I4
sS'required'
p1356
I2
sS'wards'
p1357
I2
sS'bankers'
p1358
I4
sS'departments'
p1359
I2
sS'2000'
p1360
I1
sS'sounded'
p1361
I1
sS'modernizing'
p1362
I1
sS'issued'
p1363
I2
sS'existing'
p1364
I1
sS'highways'
p1365
I1
sS'farms'
p1366
I1
sS'go'
p1367
I6
sS'contributions'
p1368
I2
sS'seemed'
p1369
I1
sS'peanut'
p1370
I1
sS"atlanta's"
p1371
I2
sS'byrd'
p1372
I1
sS'friendly'
p1373
I1
sS'sent'
p1374
I1
sS'outside'
p1375
I1
sS'rayburn'
p1376
I1
sS'dissents'
p1377
I1
sS'petitions'
p1378
I2
sS'precinct'
p1379
I5
sS'watered'
p1380
I1
sS'race'
p1381
I6
sS'originally'
p1382
I1
sS'morse'
p1383
I1
sS"kennedy's"
p1384
I1
sS'consistently'
p1385
I1
sS'gubernatorial'
p1386
I1
sS'capital'
p1387
I1
sS'collins'
p1388
I1
sS'firms'
p1389
I1
sS'led'
p1390
I1
sS'praise'
p1391
I1
sS'degree'
p1392
I4
sS'bachelor'
p1393
I1
sS'let'
p1394
I1
sS'others'
p1395
I1
sS'wesley'
p1396
I1
sS'receive'
p1397
I4
sS'involved'
p1398
I5
sS'31'
p1399
I1
sS'30'
p1400
I4
sS'37'
p1401
I2
sS'35'
p1402
I1
sS'merger'
p1403
I1
sS'honor'
p1404
I1
sS'composed'
p1405
I1
sS'named'
p1406
I1
sS'altho'
p1407
I1
sS'clark'
p1408
I6
sS'juries'
p1409
I1
sS'decrease'
p1410
I1
sS'names'
p1411
I1
sS'confidence'
p1412
I2
sS'fee'
p1413
I1
sS'from'
p1414
I17
sS'certificate'
p1415
I2
sS'illegal'
p1416
I1
sS'hudson'
p1417
I1
sS'540'
p1418
I1
sS'next'
p1419
I3
sS'doubt'
p1420
I1
sS'themselves'
p1421
I1
sS'formally'
p1422
I1
sS'4year'
p1423
I2
sS'dentistry'
p1424
I1
sS'33d'
p1425
I1
sS'appointee'
p1426
I1
sS'appointed'
p1427
I1
sS'this'
p1428
I22
sS'servants'
p1429
I1
sS'of'
p1430
I224
sS'meet'
p1431
I4
sS'saba'
p1432
I1
sS'rehabilitation'
p1433
I1
sS'summerdale'
p1434
I1
sS'process'
p1435
I1
sS'tax'
p1436
I10
sS'high'
p1437
I4
sS'effectively'
p1438
I1
sS'something'
p1439
I2
sS'sought'
p1440
I2
sS'made'
p1441
I10
sS'contempt'
p1442
I2
sS'educational'
p1443
I1
sS'holds'
p1444
I1
sS'delay'
p1445
I2
sS'instead'
p1446
I1
sS'establishment'
p1447
I4
sS'fare'
p1448
I1
sS'appropriation'
p1449
I1
sS'attend'
p1450
I3
sS'tied'
p1451
I1
sS'abuse'
p1452
I1
sS'ambiguous'
p1453
I1
sS'majorities'
p1454
I1
sS'ordinary'
p1455
I3
sS'lines'
p1456
I1
sS'chapman'
p1457
I2
sS'chief'
p1458
I4
sS'allow'
p1459
I1
sS'galveston'
p1460
I1
sS'houston'
p1461
I3
sS'six'
p1462
I1
sS'produced'
p1463
I1
sS'including'
p1464
I3
sS'17000'
p1465
I1
sS'boosts'
p1466
I1
sS"wife's"
p1467
I1
sS'superior'
p1468
I2
sS'la'
p1469
I1
sS'meantime'
p1470
I1
sS'tyler'
p1471
I1
sS'choose'
p1472
I1
sS'covered'
p1473
I1
sS'criminal'
p1474
I4
sS'pending'
p1475
I1
sS'greater'
p1476
I2
sS'mention'
p1477
I1
sS'courtroom'
p1478
I1
sS'republican'
p1479
I2
sS'realize'
p1480
I1
sS'presidential'
p1481
I1
sS'intelligent'
p1482
I1
sS'university'
p1483
I2
sS'adjournment'
p1484
I2
sS'morris'
p1485
I1
sS'rising'
p1486
I1
sS'raised'
p1487
I1
sS'bills'
p1488
I7
sS'doing'
p1489
I1
sS'700'
p1490
I1
sS'snodgrass'
p1491
I1
sS'books'
p1492
I1
sS'measure'
p1493
I2
sS'our'
p1494
I3
sS'81'
p1495
I1
sS'agriculture'
p1496
I1
sS'special'
p1497
I5
sS'out'
p1498
I9
sS'mayornominate'
p1499
I1
sS'fundamentally'
p1500
I1
sS'23d'
p1501
I4
sS'socalled'
p1502
I1
sS'red'
p1503
I1
sS'frank'
p1504
I1
sS'payroll'
p1505
I6
sS'york'
p1506
I1
sS'could'
p1507
I4
sS'4th'
p1508
I1
sS'davis'
p1509
I3
sS'austin'
p1510
I7
sS'staggered'
p1511
I1
sS'improving'
p1512
I1
sS'hurdle'
p1513
I1
sS'legislative'
p1514
I1
sS'management'
p1515
I1
sS'system'
p1516
I4
sS'relations'
p1517
I1
sS'priority'
p1518
I2
sS'their'
p1519
I7
sS'attack'
p1520
I1
sS'final'
p1521
I1
sS'acquire'
p1522
I1
sS'negro'
p1523
I1
sS'july'
p1524
I1
sS'ratcliff'
p1525
I3
sS'hearings'
p1526
I1
sS'roberts'
p1527
I3
sS'compensation'
p1528
I1
sS"formby's"
p1529
I1
sS"body's"
p1530
I1
sS'providing'
p1531
I2
sS'enforced'
p1532
I2
sS'tonight'
p1533
I1
sS'goldberg'
p1534
I1
sS'have'
p1535
I13
sS'chambers'
p1536
I1
sS'need'
p1537
I4
sS'tabb'
p1538
I1
sS"georgia's"
p1539
I4
sS'border'
p1540
I1
sS'viewed'
p1541
I1
sS'dallas'
p1542
I13
sS'agency'
p1543
I2
sS'able'
p1544
I1
sS'purchasing'
p1545
I2
sS'relatives'
p1546
I1
sS'which'
p1547
I25
sS'325'
p1548
I1
sS'so'
p1549
I2
sS'expires'
p1550
I1
sS'eight'
p1551
I3
sS'pye'
p1552
I1
sS'volume'
p1553
I1
sS'discourage'
p1554
I1
sS'enthusiastic'
p1555
I1
sS'request'
p1556
I1
sS'face'
p1557
I1
sS'proceedings'
p1558
I1
sS'fact'
p1559
I1
sS'violation'
p1560
I2
sS'text'
p1561
I1
sS'agreed'
p1562
I1
sS'charles'
p1563
I4
sS'hamlet'
p1564
I1
sS'planning'
p1565
I1
sS'debate'
p1566
I2
sS'principal'
p1567
I3
sS'unanimously'
p1568
I1
sS'based'
p1569
I1
sS'88000'
p1570
I1
sS'sheriff'
p1571
I2
sS'earned'
p1572
I1
sS'employes'
p1573
I1
sS'should'
p1574
I8
sS'unable'
p1575
I1
sS'candidates'
p1576
I2
sS'ayes'
p1577
I1
sS'employed'
p1578
I2
sS'local'
p1579
I4
sS'achieve'
p1580
I1
sS'handle'
p1581
I1
sS'means'
p1582
I4
sS'overall'
p1583
I1
sS'ones'
p1584
I3
sS'burglary'
p1585
I1
sS'tossed'
p1586
I1
sS'procedures'
p1587
I1
sS'areas'
p1588
I1
sS'133'
p1589
I1
sS'processes'
p1590
I1
sS'committees'
p1591
I1
sS'married'
p1592
I1
sS'taxes'
p1593
I5
sS'requirement'
p1594
I2
sS'constructing'
p1595
I1
sS'national'
p1596
I1
sS'we'
p1597
I3
sS'scholastic'
p1598
I1
sS'subcommittee'
p1599
I1
sS'operated'
p1600
I2
sS'bowden'
p1601
I1
sS"master's"
p1602
I1
sS'complementary'
p1603
I1
sS'state'
p1604
I26
sS'allotted'
p1605
I1
sS'pistol'
p1606
I1
sS'keynote'
p1607
I1
sS'deliver'
p1608
I1
sS'efficiency'
p1609
I1
sS'joe'
p1610
I2
sS'group'
p1611
I1
sS'distribution'
p1612
I1
sS'career'
p1613
I3
sS'taking'
p1614
I1
sS'equal'
p1615
I1
sS'april'
p1616
I2
sS'figures'
p1617
I1
sS'passing'
p1618
I1
sS'tuesday'
p1619
I2
sS'addition'
p1620
I2
sS'discrimination'
p1621
I3
sS'cent'
p1622
I7
sS'rhode'
p1623
I1
sS'willing'
p1624
I1
sS'proposal'
p1625
I6
sS'bellows'
p1626
I5
sS'faced'
p1627
I1
sS'aj'
p1628
I1
sS'both'
p1629
I5
sS'sufficient'
p1630
I1
sS"eisenhower's"
p1631
I1
sS'atlanta'
p1632
I5
sS'general'
p1633
I6
sS'present'
p1634
I3
sS'homes'
p1635
I3
sS'abandoned'
p1636
I1
sS'will'
p1637
I25
sS'texas'
p1638
I22
sS'deductible'
p1639
I1
sS'almost'
p1640
I1
sS'dissent'
p1641
I1
sS'site'
p1642
I1
sS'encouragement'
p1643
I1
sS'contention'
p1644
I1
sS'administration'
p1645
I3
sS'adverse'
p1646
I1
sS'unity'
p1647
I1
sS'parts'
p1648
I1
sS'speaker'
p1649
I3
sS'largest'
p1650
I2
sS'underground'
p1651
I1
sS'party'
p1652
I2
sS'upon'
p1653
I3
sS'effect'
p1654
I1
sS'issuance'
p1655
I1
sS'student'
p1656
I2
sS'expand'
p1657
I1
sS'insure'
p1658
I1
sS'off'
p1659
I1
sS'i'
I6
sS'well'
p1660
I1
sS'antonio'
p1661
I1
sS'hartsfield'
p1662
I5
sS'mclemore'
p1663
I1
sS'english'
p1664
I1
sS'latest'
p1665
I1
sS'excise'
p1666
I1
sS'heavily'
p1667
I1
sS'savannah'
p1668
I1
sS'executive'
p1669
I3
sS'obtain'
p1670
I2
sS'clinic'
p1671
I1
sS'underlying'
p1672
I1
sS'residential'
p1673
I1
sS'knew'
p1674
I1
sS'day'
p1675
I7
sS'arrest'
p1676
I1
sS'combine'
p1677
I1
sS'adc'
p1678
I8
sS'enacted'
p1679
I1
sS'enact'
p1680
I1
sS'increased'
p1681
I1
sS'fate'
p1682
I1
sS'government'
p1683
I2
sS'five'
p1684
I3
sS'burden'
p1685
I1
sS'press'
p1686
I1
sS'immediately'
p1687
I1
sS'colquitt'
p1688
I2
sS'like'
p1689
I5
sS'lost'
p1690
I1
sS'admitted'
p1691
I1
sS'noted'
p1692
I1
sS'taxpayers'
p1693
I1
sS'martin'
p1694
I3
sS'become'
p1695
I1
sS'amendment'
p1696
I3
sS'because'
p1697
I5
sS'authority'
p1698
I5
sS'114'
p1699
I1
sS'recommendation'
p1700
I1
sS'home'
p1701
I10
sS"school's"
p1702
I1
sS'employment'
p1703
I3
sS'cosigners'
p1704
I1
sS'4800'
p1705
I1
sS'does'
p1706
I2
sS'leader'
p1707
I3
sS'300000'
p1708
I1
sS'locate'
p1709
I1
sS'lieutenant'
p1710
I1
sS'although'
p1711
I1
sS'counties'
p1712
I5
sS'about'
p1713
I3
sS'asks'
p1714
I1
sS'extension'
p1715
I2
sS'getting'
p1716
I2
sS'smalltown'
p1717
I1
sS'freedom'
p1718
I1
sS'urged'
p1719
I2
sS'dependency'
p1720
I2
sS'carries'
p1721
I1
sS'statement'
p1722
I1
sS'introduced'
p1723
I1
sS'own'
p1724
I2
sS'letters'
p1725
I1
sS'previously'
p1726
I2
sS"department's"
p1727
I2
sS'washington'
p1728
I6
sS'three'
p1729
I2
sS'promise'
p1730
I1
sS'registration'
p1731
I1
sS'roads'
p1732
I4
sS'utility'
p1733
I1
sS'ridge'
p1734
I2
sS'additional'
p1735
I2
sS'miscount'
p1736
I1
sS'housing'
p1737
I2
sS'much'
p1738
I3
sS'function'
p1739
I1
sS'building'
p1740
I2
sS'funds'
p1741
I10
sS'but'
p1742
I9
sS'gaynor'
p1743
I1
sS'expected'
p1744
I7
sS'construction'
p1745
I4
sS'courts'
p1746
I2
sS'he'
p1747
I39
sS'157460'
p1748
I1
sS'wise'
p1749
I1
sS'places'
p1750
I2
sS'whether'
p1751
I3
sS'wish'
p1752
I1
sS'official'
p1753
I1
sS'smooth'
p1754
I1
sS'record'
p1755
I1
sS'ruling'
p1756
I1
sS'problem'
p1757
I2
sS'supreme'
p1758
I1
sS"governor's"
p1759
I1
sS'inadequate'
p1760
I1
sS'freeforall'
p1761
I1
sS'education'
p1762
I9
sS'effected'
p1763
I1
sS'47'
p1764
I1
sS'44'
p1765
I1
sS'hardfought'
p1766
I1
sS'other'
p1767
I15
sS'details'
p1768
I2
sS'adjustments'
p1769
I1
sS'dismiss'
p1770
I1
sS'monday'
p1771
I6
sS'stay'
p1772
I1
sS'multimilliondollar'
p1773
I1
sS'dewey'
p1774
I1
sS'starting'
p1775
I1
sS'rule'
p1776
I2
sS'portion'
p1777
I2
sS'pension'
p1778
I1
sS'rural'
p1779
I7
s.